 XRFNet

 Timestamp is 680d80a0 (Sun Apr 27 08:56:00 2025)

 Preferred load address is 10000000

 Start         Length     Name                   Class
 0001:00000000 00000646H .text$di                CODE
 0001:00000650 00011fe3H .text$mn                CODE
 0001:00012640 00000ea8H .text$x                 CODE
 0001:000134f0 00000607H .text$yd                CODE
 0002:00000000 00000163H .orpc                   CODE
 0003:00000000 0000025cH .idata$5                DATA
 0003:0000025c 00000004H .00cfg                  DATA
 0003:00000260 00000004H .CRT$XCA                DATA
 0003:00000264 00000004H .CRT$XCL                DATA
 0003:00000268 00000054H .CRT$XCU                DATA
 0003:000002bc 00000004H .CRT$XCZ                DATA
 0003:000002c0 00000004H .CRT$XIA                DATA
 0003:000002c4 00000004H .CRT$XIC                DATA
 0003:000002c8 00000004H .CRT$XIZ                DATA
 0003:000002cc 00000004H .CRT$XLA                DATA
 0003:000002d0 00000004H .CRT$XLZ                DATA
 0003:000002d4 00000004H .CRT$XPA                DATA
 0003:000002d8 00000004H .CRT$XPZ                DATA
 0003:000002dc 00000004H .CRT$XTA                DATA
 0003:000002e0 00000004H .CRT$XTZ                DATA
 0003:000002e4 00000000H .gfids$x                DATA
 0003:000002f0 00002ec4H .rdata                  DATA
 0003:000031b4 00000018H .rdata$T                DATA
 0003:000031cc 000023a8H .rdata$r                DATA
 0003:00005580 00000130H .rdata$sxdata           DATA
 0003:000056b0 000003e4H .rdata$zzzdbg           DATA
 0003:00005a94 00000004H .rtc$IAA                DATA
 0003:00005a98 00000004H .rtc$IZZ                DATA
 0003:00005a9c 00000004H .rtc$TAA                DATA
 0003:00005aa0 00000004H .rtc$TZZ                DATA
 0003:00005aa8 000015ccH .xdata$x                DATA
 0003:00007074 00000004H ATL$__a                 DATA
 0003:00007078 0000002cH ATL$__m                 DATA
 0003:000070a4 00000004H ATL$__z                 DATA
 0003:000070b0 000000b8H .edata                  DATA
 0003:00007168 00000118H .idata$2                DATA
 0003:00007280 00000014H .idata$3                DATA
 0003:00007294 0000025cH .idata$4                DATA
 0003:000074f0 00000b5aH .idata$6                DATA
 0004:00000000 000006d8H .data                   DATA
 0004:000006d8 000016a3H .data$r                 DATA
 0004:00001d80 000008ccH .bss                    DATA
 0005:00000000 00000001H .tls                    DATA
 0005:00000004 00000004H .tls$                   DATA
 0005:00000008 00000001H .tls$ZZZ                DATA
 0006:00000000 000003acH .rsrc$01                DATA
 0006:000003b0 00005cc0H .rsrc$02                DATA

  Address         Publics by Value              Rva+Base       Lib:Object

 0000:00000000       ___guard_fids_count        00000000     <absolute>
 0000:00000000       ___guard_fids_table        00000000     <absolute>
 0000:0000002c       __tls_array                0000002c     <absolute>
 0000:0000004c       ___safe_se_handler_count   0000004c     <absolute>
 0000:00000100       ___guard_flags             00000100     <absolute>
 0000:00000000       ___ImageBase               10000000     <linker-defined>
 0001:00000650       ?Destroy@CElectromagnet@@EAEXXZ 10001650 f i Electromagnet.obj
 0001:00000650       ?Destroy@CSurfaceSource@@EAEXXZ 10001650 f i SurfaceSource.obj
 0001:00000650       @_guard_check_icall_nop@4  10001650 f i MSVCRT:guard_support.obj
 0001:00000650       ?Destroy@CHighVoltage@@EAEXXZ 10001650 f i HighVoltage.obj
 0001:00000650       ?Destroy@CXRFNetwork@@EAEXXZ 10001650 f i XRFNetwork.obj
 0001:00000650       ?Destroy@CApparatus@@EAEXXZ 10001650 f i Apparatus.obj
 0001:00000650       ?Destroy@CMotorControl@@EAEXXZ 10001650 f i MotorControl.obj
 0001:00000650       ?Destroy@CXRFRayTube@@EAEXXZ 10001650 f i XRFRayTube.obj
 0001:00000650       ??1_ATL_COM_MODULE70@ATL@@QAE@XZ 10001650 f i dllmain.obj
 0001:00000650       ?Destroy@CDetector@@EAEXXZ 10001650 f i Detector.obj
 0001:00000650       ??3@YAXPAX0@Z              10001650 f i SkyrayLib:SkyrayUtil.obj
 0001:00000650       ?Destroy@CVacuumPump@@EAEXXZ 10001650 f i VacuumPump.obj
 0001:00000650       ?Destroy@CHeightLaser@@EAEXXZ 10001650 f i HeightLaser.obj
 0001:00000660       ?Ansi2Unicode@Skyray@@YAXPBDAAV?$basic_string@_WU?$char_traits@_W@std@@V?$allocator@_W@2@@std@@@Z 10001660 f   SkyrayLib:SkyrayUtil.obj
 0001:00000750       ?substr@?$basic_string@_WU?$char_traits@_W@std@@V?$allocator@_W@2@@std@@QBE?AV12@II@Z 10001750 f i SkyrayLib:SkyrayUtil.obj
 0001:00000790       ??4?$basic_string@_WU?$char_traits@_W@std@@V?$allocator@_W@2@@std@@QAEAAV01@PB_W@Z 10001790 f i SkyrayLib:SkyrayUtil.obj
 0001:000007e0       ??1?$basic_string@_WU?$char_traits@_W@std@@V?$allocator@_W@2@@std@@QAE@XZ 100017e0 f i SkyrayLib:SkyrayUtil.obj
 0001:00000820       ??4?$basic_string@_WU?$char_traits@_W@std@@V?$allocator@_W@2@@std@@QAEAAV01@$$QAV01@@Z 10001820 f i SkyrayLib:SkyrayUtil.obj
 0001:000008a0       ??0?$basic_string@_WU?$char_traits@_W@std@@V?$allocator@_W@2@@std@@QAE@PB_W@Z 100018a0 f i SkyrayLib:SkyrayUtil.obj
 0001:00000900       ?_Myptr@?$_String_alloc@U?$_String_base_types@_WV?$allocator@_W@std@@@std@@@std@@QBEPB_WXZ 10001900 f i SkyrayLib:SkyrayUtil.obj
 0001:00000910       ?erase@?$basic_string@_WU?$char_traits@_W@std@@V?$allocator@_W@2@@std@@QAEAAV12@II@Z 10001910 f i SkyrayLib:SkyrayUtil.obj
 0001:000009c0       ?assign@?$basic_string@_WU?$char_traits@_W@std@@V?$allocator@_W@2@@std@@QAEAAV12@PB_WI@Z 100019c0 f i SkyrayLib:SkyrayUtil.obj
 0001:00000ac0       ?_Assign_rv@?$basic_string@_WU?$char_traits@_W@std@@V?$allocator@_W@2@@std@@QAEX$$QAV12@@Z 10001ac0 f i SkyrayLib:SkyrayUtil.obj
 0001:00000b30       ?erase@?$basic_string@DU?$char_traits@D@std@@V?$allocator@D@2@@std@@QAEAAV12@II@Z 10001b30 f i SkyrayLib:SkyrayUtil.obj
 0001:00000bd0       ?assign@?$basic_string@DU?$char_traits@D@std@@V?$allocator@D@2@@std@@QAEAAV12@PBDI@Z 10001bd0 f i SkyrayLib:SkyrayUtil.obj
 0001:00000c90       ?assign@?$basic_string@DU?$char_traits@D@std@@V?$allocator@D@2@@std@@QAEAAV12@ABV12@II@Z 10001c90 f i SkyrayLib:SkyrayUtil.obj
 0001:00000d00       ?deallocate@?$_Wrap_alloc@V?$allocator@_W@std@@@std@@QAEXPA_WI@Z 10001d00 f i SkyrayLib:SkyrayUtil.obj
 0001:00000d60       ?deallocate@?$_Wrap_alloc@V?$allocator@D@std@@@std@@QAEXPADI@Z 10001d60 f i SkyrayLib:SkyrayUtil.obj
 0001:00000dc0       ??0?$_Wrap_alloc@V?$allocator@D@std@@@std@@QAE@ABV?$allocator@D@1@@Z 10001dc0 f i SkyrayLib:SkyrayUtil.obj
 0001:00000dd0       ?_Grow@?$basic_string@_WU?$char_traits@_W@std@@V?$allocator@_W@2@@std@@QAE_NI_N@Z 10001dd0 f i SkyrayLib:SkyrayUtil.obj
 0001:00000e90       ?assign@?$basic_string@_WU?$char_traits@_W@std@@V?$allocator@_W@2@@std@@QAEAAV12@ABV12@II@Z 10001e90 f i SkyrayLib:SkyrayUtil.obj
 0001:00000fa0       ?_Grow@?$basic_string@DU?$char_traits@D@std@@V?$allocator@D@2@@std@@QAE_NI_N@Z 10001fa0 f i SkyrayLib:SkyrayUtil.obj
 0001:00001010       ?_Copy@?$basic_string@_WU?$char_traits@_W@std@@V?$allocator@_W@2@@std@@QAEXII@Z 10002010 f i SkyrayLib:SkyrayUtil.obj
 0001:000011d0       ?_Copy@?$basic_string@DU?$char_traits@D@std@@V?$allocator@D@2@@std@@QAEXII@Z 100021d0 f i SkyrayLib:SkyrayUtil.obj
 0001:00001380       ?allocate@?$_Wrap_alloc@V?$allocator@_W@std@@@std@@QAEPA_WI@Z 10002380 f i SkyrayLib:SkyrayUtil.obj
 0001:000013f0       ?allocate@?$_Wrap_alloc@V?$allocator@D@std@@@std@@QAEPADI@Z 100023f0 f i SkyrayLib:SkyrayUtil.obj
 0001:00001460       ??$destroy@PA_W@?$_Wrap_alloc@V?$allocator@_W@std@@@std@@QAEXPAPA_W@Z 10002460 f i SkyrayLib:SkyrayUtil.obj
 0001:00001460       ??$destroy@PAD@?$_Wrap_alloc@V?$allocator@D@std@@@std@@QAEXPAPAD@Z 10002460 f i SkyrayLib:SkyrayUtil.obj
 0001:00001460       ?ObjectMain@CComObjectRootBase@ATL@@SGX_N@Z 10002460 f i Apparatus.obj
 0001:00001470       ??$_Deallocate@_W@std@@YAXPA_WI@Z 10002470 f i SkyrayLib:SkyrayUtil.obj
 0001:000014d0       ??0?$_Wrap_alloc@V?$allocator@_W@std@@@std@@QAE@ABV?$allocator@_W@1@@Z 100024d0 f i SkyrayLib:SkyrayUtil.obj
 0001:000014e0       ?UpdateRegistry@CApparatus@@SGJH@Z 100024e0 f i Apparatus.obj
 0001:00001500       ?CreateInstance@?$CComCreator@V?$CComObjectCached@VCComClassFactory@ATL@@@ATL@@@ATL@@SGJPAXABU_GUID@@PAPAX@Z 10002500 f i Apparatus.obj
 0001:000015c0       ?CreateInstance@?$CComCreator2@V?$CComCreator@V?$CComObject@VCApparatus@@@ATL@@@ATL@@V?$CComCreator@V?$CComAggObject@VCApparatus@@@ATL@@@2@@ATL@@SGJPAXABU_GUID@@PAPAX@Z 100025c0 f i Apparatus.obj
 0001:000015e0       ??$?4UITypeInfo2@@@?$CComPtr@UITypeInfo@@@ATL@@QAEPAUITypeInfo@@ABV?$CComPtr@UITypeInfo2@@@1@@Z 100025e0 f i Apparatus.obj
 0001:00001630       ??0?$CComAggObject@VCApparatus@@@ATL@@QAE@PAX@Z 10002630 f i Apparatus.obj
 0001:000016f0       ??0?$CComObject@VCApparatus@@@ATL@@QAE@PAX@Z 100026f0 f i Apparatus.obj
 0001:000017a0       ??0stringdispid@CComTypeInfoHolder@ATL@@QAE@XZ 100027a0 f i Apparatus.obj
 0001:000017d0       ??1?$CAtlSafeAllocBufferManager@VCCRTAllocator@ATL@@@_ATL_SAFE_ALLOCA_IMPL@ATL@@QAE@XZ 100027d0 f i Apparatus.obj
 0001:00001800       ??1?$CAutoVectorPtr@_W@ATL@@QAE@XZ 10002800 f i Apparatus.obj
 0001:00001820       ??1?$CComAggObject@VCApparatus@@@ATL@@UAE@XZ 10002820 f i Apparatus.obj
 0001:000018e0       ??1?$CComCritSecLock@VCComCriticalSection@ATL@@@ATL@@QAE@XZ 100028e0 f i Apparatus.obj
 0001:00001900       ??1?$CComObject@VCApparatus@@@ATL@@UAE@XZ 10002900 f i Apparatus.obj
 0001:000019d0       ??1?$CComPtr@UITypeInfo@@@ATL@@QAE@XZ 100029d0 f i Apparatus.obj
 0001:000019d0       ??1?$CComPtr@UITypeInfo2@@@ATL@@QAE@XZ 100029d0 f i Apparatus.obj
 0001:00001a10       ??1?$CTempBuffer@_W$0BAA@VCCRTAllocator@ATL@@@ATL@@QAE@XZ 10002a10 f i Apparatus.obj
 0001:00001a10       ??1?$CTempBuffer@E$0BAA@VCCRTAllocator@ATL@@@ATL@@QAE@XZ 10002a10 f i Apparatus.obj
 0001:00001a10       ??1?$CTempBuffer@_W$0EAA@VCCRTAllocator@ATL@@@ATL@@QAE@XZ 10002a10 f i Apparatus.obj
 0001:00001a20       ??1?$CComContainedObject@VCApparatus@@@ATL@@QAE@XZ 10002a20 f i Apparatus.obj
 0001:00001a20       ??1CApparatus@@QAE@XZ      10002a20 f i Apparatus.obj
 0001:00001a80       ??1CComBSTR@ATL@@QAE@XZ    10002a80 f i Apparatus.obj
 0001:00001a80       ??1stringdispid@CComTypeInfoHolder@ATL@@QAE@XZ 10002a80 f i Apparatus.obj
 0001:00001a90       ??1CParseBuffer@CRegParser@ATL@@QAE@XZ 10002a90 f i Apparatus.obj
 0001:00001aa0       ??1CRegKey@ATL@@QAE@XZ     10002aa0 f i Apparatus.obj
 0001:00001ac0       ??1CRegObject@ATL@@UAE@XZ  10002ac0 f i Apparatus.obj
 0001:00001b10       ??_G?$CComAggObject@VCApparatus@@@ATL@@UAEPAXI@Z 10002b10 f i Apparatus.obj
 0001:00001b10       ??_E?$CComAggObject@VCApparatus@@@ATL@@UAEPAXI@Z 10002b10 f i Apparatus.obj
 0001:00001b40       ??_G?$CComObject@VCApparatus@@@ATL@@UAEPAXI@Z 10002b40 f i Apparatus.obj
 0001:00001b40       ??_E?$CComObject@VCApparatus@@@ATL@@UAEPAXI@Z 10002b40 f i Apparatus.obj
 0001:00001b70       ??_E?$CComObjectCached@VCComClassFactory@ATL@@@ATL@@UAEPAXI@Z 10002b70 f i Apparatus.obj
 0001:00001b70       ??_G?$CComObjectCached@VCComClassFactory@ATL@@@ATL@@UAEPAXI@Z 10002b70 f i Apparatus.obj
 0001:00001bb0       ??_ECComClassFactory@ATL@@UAEPAXI@Z 10002bb0 f i Apparatus.obj
 0001:00001bb0       ??_GCComClassFactory@ATL@@UAEPAXI@Z 10002bb0 f i Apparatus.obj
 0001:00001bf0       ??_GCRegObject@ATL@@UAEPAXI@Z 10002bf0 f i Apparatus.obj
 0001:00001bf0       ??_ECRegObject@ATL@@UAEPAXI@Z 10002bf0 f i Apparatus.obj
 0001:00001c60       ?Add@?$CSimpleMap@PA_WPA_WVCExpansionVectorEqualHelper@ATL@@@ATL@@QAEHABQA_W0@Z 10002c60 f i Apparatus.obj
 0001:00001ce0       ?Add@CExpansionVector@ATL@@QAEHPB_W0@Z 10002ce0 f i Apparatus.obj
 0001:00001e60       ?AddRef@?$CComObject@VCDetectData@@@ATL@@UAGKXZ 10002e60 f i DetectData.obj
 0001:00001e60       ?AddRef@?$CComAggObject@VCHighVoltage@@@ATL@@UAGKXZ 10002e60 f i HighVoltage.obj
 0001:00001e60       ?AddRef@?$CComAggObject@VCVacuumPump@@@ATL@@UAGKXZ 10002e60 f i VacuumPump.obj
 0001:00001e60       ?AddRef@?$CComAggObject@VCXRFNetwork@@@ATL@@UAGKXZ 10002e60 f i XRFNetwork.obj
 0001:00001e60       ?AddRef@?$CComAggObject@VCApparatus@@@ATL@@UAGKXZ 10002e60 f i Apparatus.obj
 0001:00001e60       ?AddRef@?$CComAggObject@VCMotorControl@@@ATL@@UAGKXZ 10002e60 f i MotorControl.obj
 0001:00001e60       ?AddRef@?$CComAggObject@VCSurfaceSource@@@ATL@@UAGKXZ 10002e60 f i SurfaceSource.obj
 0001:00001e60       ?AddRef@?$CComAggObject@VCElectromagnet@@@ATL@@UAGKXZ 10002e60 f i Electromagnet.obj
 0001:00001e60       ?AddRef@?$CComAggObject@VCHeightLaser@@@ATL@@UAGKXZ 10002e60 f i HeightLaser.obj
 0001:00001e60       ?AddRef@?$CComAggObject@VCDetector@@@ATL@@UAGKXZ 10002e60 f i Detector.obj
 0001:00001e60       ?AddRef@?$CComAggObject@VCDetectData@@@ATL@@UAGKXZ 10002e60 f i DetectData.obj
 0001:00001e60       ?AddRef@?$CComAggObject@VCXRFRayTube@@@ATL@@UAGKXZ 10002e60 f i XRFRayTube.obj
 0001:00001e80       ?AddRef@?$CComObjectCached@VCComClassFactory@ATL@@@ATL@@UAGKXZ 10002e80 f i Apparatus.obj
 0001:00001eb0       ?AddRef@CRegObject@ATL@@UAGKXZ 10002eb0 f i Apparatus.obj
 0001:00001ec0       ?AddReplacement@CRegObject@ATL@@UAGJPB_W0@Z 10002ec0 f i Apparatus.obj
 0001:00001f40       ?AddString@CParseBuffer@CRegParser@ATL@@QAEHPB_W@Z 10002f40 f i Apparatus.obj
 0001:00001fc0       ?AddTermFunc@CAtlModule@ATL@@QAEJP6GXK@ZK@Z 10002fc0 f i Apparatus.obj
 0001:00001ff0       ?AddValue@CRegParser@ATL@@IAEJAAVCRegKey@2@PB_WPA_W@Z 10002ff0 f i Apparatus.obj
 0001:000023c0       ?Allocate@?$CTempBuffer@E$0BAA@VCCRTAllocator@ATL@@@ATL@@QAEPAEI@Z 100033c0 f i Apparatus.obj
 0001:00002400       ?Allocate@?$CTempBuffer@_W$0BAA@VCCRTAllocator@ATL@@@ATL@@QAEPA_WI@Z 10003400 f i Apparatus.obj
 0001:00002450       ?Allocate@?$CTempBuffer@_W$0EAA@VCCRTAllocator@ATL@@@ATL@@QAEPA_WI@Z 10003450 f i Apparatus.obj
 0001:000024a0       ?AllocateHeap@?$CTempBuffer@_W$0BAA@VCCRTAllocator@ATL@@@ATL@@AAEXI@Z 100034a0 f i Apparatus.obj
 0001:000024a0       ?AllocateHeap@?$CTempBuffer@E$0BAA@VCCRTAllocator@ATL@@@ATL@@AAEXI@Z 100034a0 f i Apparatus.obj
 0001:000024a0       ?AllocateHeap@?$CTempBuffer@_W$0EAA@VCCRTAllocator@ATL@@@ATL@@AAEXI@Z 100034a0 f i Apparatus.obj
 0001:000024d0       ?Append@CParseBuffer@CRegParser@ATL@@QAEHPB_WH@Z 100034d0 f i Apparatus.obj
 0001:00002580       ?AtlCrtErrorCheck@ATL@@YAHH@Z 10003580 f i Apparatus.obj
 0001:00002620       ?AtlHresultFromLastError@ATL@@YAJXZ 10003620 f i Apparatus.obj
 0001:00002640       ?AtlHresultFromWin32@ATL@@YAJK@Z 10003640 f i Apparatus.obj
 0001:00002660       ?AtlInternalQueryInterface@ATL@@YGJPAXPBU_ATL_INTMAP_ENTRY@1@ABU_GUID@@PAPAX@Z 10003660 f i Apparatus.obj
 0001:00002760       ?AtlModuleAddTermFunc@ATL@@YGJPAU_ATL_MODULE70@1@P6GXK@ZK@Z 10003760 f i Apparatus.obj
 0001:000027d0       ?AtlThrowImpl@ATL@@YGXJ@Z  100037d0 f i Apparatus.obj
 0001:000027f0       ?CanForceRemoveKey@CRegParser@ATL@@IAEHPB_W@Z 100037f0 f i Apparatus.obj
 0001:00002830       ?ChToByte@CRegParser@ATL@@KAE_W@Z 10003830 f i Apparatus.obj
 0001:000028b0       ?CheckVersion@CApparatus@@UAGJPAII@Z 100038b0 f   Apparatus.obj
 0001:00002a00       ?Cleanup@CComTypeInfoHolder@ATL@@SGXK@Z 10003a00 f i Apparatus.obj
 0001:00002a90       ?ClearReplacements@CExpansionVector@ATL@@QAEJXZ 10003a90 f i Apparatus.obj
 0001:00002b20       ?ClearReplacements@CRegObject@ATL@@UAGJXZ 10003b20 f i Apparatus.obj
 0001:00002b40       ?Config@CApparatus@@UAGJPBE000@Z 10003b40 f   Apparatus.obj
 0001:00002c00       ?Create@CRegKey@ATL@@QAEJPAUHKEY__@@PB_WPA_WKKPAU_SECURITY_ATTRIBUTES@@PAK@Z 10003c00 f i Apparatus.obj
 0001:00002ce0       ?CreateInstance@?$CComCreator@V?$CComAggObject@VCApparatus@@@ATL@@@ATL@@SGJPAXABU_GUID@@PAPAX@Z 10003ce0 f i Apparatus.obj
 0001:00002e00       ?CreateInstance@?$CComCreator@V?$CComObject@VCApparatus@@@ATL@@@ATL@@SGJPAXABU_GUID@@PAPAX@Z 10003e00 f i Apparatus.obj
 0001:00002f30       ?CreateInstance@CComClassFactory@ATL@@UAGJPAUIUnknown@@ABU_GUID@@PAPAX@Z 10003f30 f i Apparatus.obj
 0001:00002f90       ?DeleteSubKey@CRegKey@ATL@@QAEJPB_W@Z 10003f90 f i Apparatus.obj
 0001:00003070       ?EscapeSingleQuote@CAtlModule@ATL@@SAXPA_WIPB_W@Z 10004070 f i Apparatus.obj
 0001:000030c0       ?FreeHeap@?$CTempBuffer@E$0BAA@VCCRTAllocator@ATL@@@ATL@@AAEXXZ 100040c0 f i Apparatus.obj
 0001:000030c0       ?FreeHeap@?$CTempBuffer@_W$0BAA@VCCRTAllocator@ATL@@@ATL@@AAEXXZ 100040c0 f i Apparatus.obj
 0001:000030c0       ?FreeHeap@?$CTempBuffer@_W$0EAA@VCCRTAllocator@ATL@@@ATL@@AAEXXZ 100040c0 f i Apparatus.obj
 0001:000030d0       ?GetIDsOfNames@?$IDispatchImpl@UIApparatus@@$1?IID_IApparatus@@3U_GUID@@B$1?LIBID_XRFNetLib@@3U3@B$00$0A@VCComTypeInfoHolder@ATL@@@ATL@@UAGJABU_GUID@@PAPA_WIKPAJ@Z 100040d0 f i Apparatus.obj
 0001:000030f0       ?GetIDsOfNames@CComTypeInfoHolder@ATL@@QAEJABU_GUID@@PAPA_WIKPAJ@Z 100040f0 f i Apparatus.obj
 0001:00003220       ?GetTI@CComTypeInfoHolder@ATL@@QAEJK@Z 10004220 f i Apparatus.obj
 0001:00003490       ?GetTypeInfo@?$IDispatchImpl@UIApparatus@@$1?IID_IApparatus@@3U_GUID@@B$1?LIBID_XRFNetLib@@3U3@B$00$0A@VCComTypeInfoHolder@ATL@@@ATL@@UAGJIKPAPAUITypeInfo@@@Z 10004490 f i Apparatus.obj
 0001:000034f0       ?HasSubKeys@CRegParser@ATL@@IAEHPAUHKEY__@@@Z 100044f0 f i Apparatus.obj
 0001:00003540       ?ID@CApparatus@@EAEIXZ     10004540 f i Apparatus.obj
 0001:00003550       ?Invoke@?$IDispatchImpl@UIApparatus@@$1?IID_IApparatus@@3U_GUID@@B$1?LIBID_XRFNetLib@@3U3@B$00$0A@VCComTypeInfoHolder@ATL@@@ATL@@UAGJJABU_GUID@@KGPAUtagDISPPARAMS@@PAUtagVARIANT@@PAUtagEXCEPINFO@@PAI@Z 10004550 f i Apparatus.obj
 0001:000035a0       ?IsEqualObject@?$CComPtrBase@UITypeInfo@@@ATL@@QAE_NPAUIUnknown@@@Z 100045a0 f i Apparatus.obj
 0001:00003680       ?LoadNameCache@CComTypeInfoHolder@ATL@@QAEJPAUITypeInfo@@@Z 10004680 f i Apparatus.obj
 0001:00003830       ?LockServer@CComClassFactory@ATL@@UAGJH@Z 10004830 f i Apparatus.obj
 0001:00003860       ?Lookup@?$CSimpleMap@PA_WPA_WVCExpansionVectorEqualHelper@ATL@@@ATL@@QBEPA_WABQA_W@Z 10004860 f i Apparatus.obj
 0001:000038c0       ?Name@CApparatus@@EAEPB_WXZ 100048c0 f i Apparatus.obj
 0001:000038e0       ?NextToken@CRegParser@ATL@@IAEJPA_W@Z 100048e0 f i Apparatus.obj
 0001:00003a80       ?OnReceive@CApparatus@@EAEXW4TransportID@NetLib@@PAVIUnpacking@3@@Z 10004a80 f   Apparatus.obj
 0001:00003ad0       ?Open@CRegKey@ATL@@QAEJPAUHKEY__@@PB_WK@Z 10004ad0 f i Apparatus.obj
 0001:00003b80       ?PreProcessBuffer@CRegParser@ATL@@QAEJPA_WPAPA_W@Z 10004b80 f i Apparatus.obj
 0001:00003e50       ?PushIP@CApparatus@@AAEXPAVIPacking@NetLib@@PBE@Z 10004e50 f   Apparatus.obj
 0001:00003ea0       ?QueryInterface@?$CComAggObject@VCApparatus@@@ATL@@UAGJABU_GUID@@PAPAX@Z 10004ea0 f i Apparatus.obj
 0001:00003f10       ?QueryInterface@?$CComObject@VCApparatus@@@ATL@@UAGJABU_GUID@@PAPAX@Z 10004f10 f i Apparatus.obj
 0001:00003f30       ?QueryInterface@?$CComObjectCached@VCComClassFactory@ATL@@@ATL@@UAGJABU_GUID@@PAPAX@Z 10004f30 f i Apparatus.obj
 0001:00003f50       ?QueryInterface@CRegObject@ATL@@UAGJABU_GUID@@PAPAX@Z 10004f50 f i Apparatus.obj
 0001:00003f60       ?RecurseDeleteKey@CRegKey@ATL@@QAEJPB_W@Z 10004f60 f i Apparatus.obj
 0001:000040b0       ?RegisterBuffer@CRegParser@ATL@@QAEJPA_WH@Z 100050b0 f i Apparatus.obj
 0001:00004210       ?RegisterFromResource@CRegObject@ATL@@IAEJPB_W00H@Z 10005210 f i Apparatus.obj
 0001:000043f0       ?RegisterSubkeys@CRegParser@ATL@@IAEJPA_WPAUHKEY__@@HH@Z 100053f0 f i Apparatus.obj
 0001:00004b10       ?Release@?$CComContainedObject@VCMotorControl@@@ATL@@UAGKXZ 10005b10 f i MotorControl.obj
 0001:00004b10       ?Release@?$CComContainedObject@VCHeightLaser@@@ATL@@UAGKXZ 10005b10 f i HeightLaser.obj
 0001:00004b10       ?Release@?$CComContainedObject@VCVacuumPump@@@ATL@@UAGKXZ 10005b10 f i VacuumPump.obj
 0001:00004b10       ?Release@?$CComContainedObject@VCHighVoltage@@@ATL@@UAGKXZ 10005b10 f i HighVoltage.obj
 0001:00004b10       ?Release@?$CComContainedObject@VCApparatus@@@ATL@@UAGKXZ 10005b10 f i Apparatus.obj
 0001:00004b10       ?Release@?$CComContainedObject@VCSurfaceSource@@@ATL@@UAGKXZ 10005b10 f i SurfaceSource.obj
 0001:00004b10       ?Release@?$CComContainedObject@VCElectromagnet@@@ATL@@UAGKXZ 10005b10 f i Electromagnet.obj
 0001:00004b10       ?Release@?$CComContainedObject@VCXRFRayTube@@@ATL@@UAGKXZ 10005b10 f i XRFRayTube.obj
 0001:00004b30       ?Release@?$CComObject@VCElectromagnet@@@ATL@@UAGKXZ 10005b30 f i Electromagnet.obj
 0001:00004b30       ?Release@?$CComObject@VCApparatus@@@ATL@@UAGKXZ 10005b30 f i Apparatus.obj
 0001:00004bb0       ?Release@?$CComObjectCached@VCComClassFactory@ATL@@@ATL@@UAGKXZ 10005bb0 f i Apparatus.obj
 0001:00004bf0       ?Release@CRegObject@ATL@@UAGKXZ 10005bf0 f i Apparatus.obj
 0001:00004c00       ?ResourceRegister@CRegObject@ATL@@QAGJPB_WI0@Z 10005c00 f i Apparatus.obj
 0001:00004c60       ?ResourceUnregister@CRegObject@ATL@@QAGJPB_WI0@Z 10005c60 f i Apparatus.obj
 0001:00004cc0       ?SetDWORDValue@CRegKey@ATL@@QAEJPB_WK@Z 10005cc0 f i Apparatus.obj
 0001:00004ce0       ?SetMultiStringValue@CRegKey@ATL@@QAEJPB_W0@Z 10005ce0 f i Apparatus.obj
 0001:00004d40       ?SetStringValue@CRegKey@ATL@@QAEJPB_W0K@Z 10005d40 f i Apparatus.obj
 0001:00004d90       ?SkipAssignment@CRegParser@ATL@@IAEJPA_W@Z 10005d90 f i Apparatus.obj
 0001:00004e00       ?SkipWhiteSpace@CRegParser@ATL@@IAEXXZ 10005e00 f i Apparatus.obj
 0001:00004e50       ?StrChrW@CRegParser@ATL@@KAPA_WPA_W_W@Z 10005e50 f i Apparatus.obj
 0001:00004ea0       ?UpdateRegistryFromResource@CAtlModule@ATL@@QAGJIHPAU_ATL_REGMAP_ENTRY@2@@Z 10005ea0 f i Apparatus.obj
 0001:000050f0       ?VTFromRegType@CRegParser@ATL@@KAHPB_WAAG@Z 100060f0 f i Apparatus.obj
 0001:000051d0       ?_AtlInitializeCriticalSectionEx@ATL@@YAHPAU_RTL_CRITICAL_SECTION@@KK@Z 100061d0 f i Apparatus.obj
 0001:000051f0       ?memcpy_s@Checked@ATL@@YAXPAXIPBXI@Z 100061f0 f i Apparatus.obj
 0001:00005210       ?ocscpy_s@@YA_NPA_WIPB_W@Z 10006210 f i Apparatus.obj
 0001:00005260       ?ocslen@@YAHPB_W@Z         10006260 f i Apparatus.obj
 0001:00005290       ?UpdateRegistry@CDetectData@@SGJH@Z 10006290 f i DetectData.obj
 0001:000052b0       ?CreateInstance@?$CComCreator2@V?$CComCreator@V?$CComObject@VCDetectData@@@ATL@@@ATL@@V?$CComCreator@V?$CComAggObject@VCDetectData@@@ATL@@@2@@ATL@@SGJPAXABU_GUID@@PAPAX@Z 100062b0 f i DetectData.obj
 0001:000052d0       ??0?$CComAggObject@VCDetectData@@@ATL@@QAE@PAX@Z 100062d0 f i DetectData.obj
 0001:00005350       ??1CDetectData@@QAE@XZ     10006350 f i DetectData.obj
 0001:00005350       ??1?$CComContainedObject@VCDetectData@@@ATL@@QAE@XZ 10006350 f i DetectData.obj
 0001:00005370       ??_E?$CComAggObject@VCDetectData@@@ATL@@UAEPAXI@Z 10006370 f i DetectData.obj
 0001:00005370       ??_G?$CComAggObject@VCDetectData@@@ATL@@UAEPAXI@Z 10006370 f i DetectData.obj
 0001:00005410       ??_G?$CComObject@VCDetectData@@@ATL@@UAEPAXI@Z 10006410 f i DetectData.obj
 0001:00005410       ??_E?$CComObject@VCDetectData@@@ATL@@UAEPAXI@Z 10006410 f i DetectData.obj
 0001:000054b0       ?AddRef@?$CComContainedObject@VCDetectData@@@ATL@@UAGKXZ 100064b0 f i DetectData.obj
 0001:000054d0       ?At@CDetectData@@UAGJGPAG@Z 100064d0 f   DetectData.obj
 0001:00005510       ?Count@CDetectData@@UAGJPAG@Z 10006510 f   DetectData.obj
 0001:00005540       ?CreateInstance@?$CComCreator@V?$CComAggObject@VCDetectData@@@ATL@@@ATL@@SGJPAXABU_GUID@@PAPAX@Z 10006540 f i DetectData.obj
 0001:00005650       ?CreateInstance@?$CComCreator@V?$CComObject@VCDetectData@@@ATL@@@ATL@@SGJPAXABU_GUID@@PAPAX@Z 10006650 f i DetectData.obj
 0001:00005790       ?GetIDsOfNames@?$IDispatchImpl@UIDetectData@@$1?IID_IDetectData@@3U_GUID@@B$1?LIBID_XRFNetLib@@3U3@B$00$0A@VCComTypeInfoHolder@ATL@@@ATL@@UAGJABU_GUID@@PAPA_WIKPAJ@Z 10006790 f i DetectData.obj
 0001:000057b0       ?GetTypeInfo@?$IDispatchImpl@UIDetectData@@$1?IID_IDetectData@@3U_GUID@@B$1?LIBID_XRFNetLib@@3U3@B$00$0A@VCComTypeInfoHolder@ATL@@@ATL@@UAGJIKPAPAUITypeInfo@@@Z 100067b0 f i DetectData.obj
 0001:00005810       ?Init@CDetectData@@UAGJPBGG@Z 10006810 f   DetectData.obj
 0001:00005890       ?Invoke@?$IDispatchImpl@UIDetectData@@$1?IID_IDetectData@@3U_GUID@@B$1?LIBID_XRFNetLib@@3U3@B$00$0A@VCComTypeInfoHolder@ATL@@@ATL@@UAGJJABU_GUID@@KGPAUtagDISPPARAMS@@PAUtagVARIANT@@PAUtagEXCEPINFO@@PAI@Z 10006890 f i DetectData.obj
 0001:000058e0       ?QueryInterface@?$CComAggObject@VCDetectData@@@ATL@@UAGJABU_GUID@@PAPAX@Z 100068e0 f i DetectData.obj
 0001:00005950       ?QueryInterface@?$CComContainedObject@VCDetectData@@@ATL@@UAGJABU_GUID@@PAPAX@Z 10006950 f i DetectData.obj
 0001:00005970       ?QueryInterface@?$CComObject@VCDetectData@@@ATL@@UAGJABU_GUID@@PAPAX@Z 10006970 f i DetectData.obj
 0001:00005990       ?Release@?$CComContainedObject@VCDetectData@@@ATL@@UAGKXZ 10006990 f i DetectData.obj
 0001:000059b0       ?Release@?$CComObject@VCDetectData@@@ATL@@UAGKXZ 100069b0 f i DetectData.obj
 0001:00005ad0       ?CreateInstance@?$CComCreator2@V?$CComCreator@V?$CComObject@VCDetector@@@ATL@@@ATL@@V?$CComCreator@V?$CComAggObject@VCDetector@@@ATL@@@2@@ATL@@SGJPAXABU_GUID@@PAPAX@Z 10006ad0 f i Detector.obj
 0001:00005af0       ?UpdateRegistry@CDetector@@SGJH@Z 10006af0 f i Detector.obj
 0001:00005b10       ??0?$CComAggObject@VCDetector@@@ATL@@QAE@PAX@Z 10006b10 f i Detector.obj
 0001:00005ba0       ??0CDetector@@QAE@XZ       10006ba0 f   Detector.obj
 0001:00005c20       ??1?$CComAggObject@VCDetector@@@ATL@@UAE@XZ 10006c20 f i Detector.obj
 0001:00005cd0       ??1?$CComObject@VCDetector@@@ATL@@UAE@XZ 10006cd0 f i Detector.obj
 0001:00005d90       ??1CDetector@@QAE@XZ       10006d90 f i Detector.obj
 0001:00005d90       ??1?$CComContainedObject@VCDetector@@@ATL@@QAE@XZ 10006d90 f i Detector.obj
 0001:00005df0       ??_E?$CComAggObject@VCDetector@@@ATL@@UAEPAXI@Z 10006df0 f i Detector.obj
 0001:00005df0       ??_G?$CComAggObject@VCDetector@@@ATL@@UAEPAXI@Z 10006df0 f i Detector.obj
 0001:00005e20       ??_G?$CComObject@VCDetector@@@ATL@@UAEPAXI@Z 10006e20 f i Detector.obj
 0001:00005e20       ??_E?$CComObject@VCDetector@@@ATL@@UAEPAXI@Z 10006e20 f i Detector.obj
 0001:00005e50       ?AddRef@?$CComContainedObject@VCDetector@@@ATL@@UAGKXZ 10006e50 f i Detector.obj
 0001:00005e70       ?AddRef@?$CComObject@VCDetector@@@ATL@@UAGKXZ 10006e70 f i Detector.obj
 0001:00005e90       ?BeginRead@CDetector@@UAGJXZ 10006e90 f   Detector.obj
 0001:00005f00       ?CheckVersion@CDetector@@UAGJPAHI@Z 10006f00 f   Detector.obj
 0001:00006060       ?Config@CDetector@@UAGJEEEEEIIEEEN@Z 10007060 f   Detector.obj
 0001:000061e0       ?CreateInstance@?$CComCreator@V?$CComAggObject@VCDetector@@@ATL@@@ATL@@SGJPAXABU_GUID@@PAPAX@Z 100071e0 f i Detector.obj
 0001:00006300       ?CreateInstance@?$CComCreator@V?$CComObject@VCDetector@@@ATL@@@ATL@@SGJPAXABU_GUID@@PAPAX@Z 10007300 f i Detector.obj
 0001:00006440       ?FinalConstruct@CDetector@@QAEJXZ 10007440 f   Detector.obj
 0001:000064c0       ?FinalRelease@CDetector@@QAEXXZ 100074c0 f   Detector.obj
 0001:00006530       ?GetDMCADatas@CDetector@@UAGJIQAEPAF@Z 10007530 f   Detector.obj
 0001:00006680       ?GetDpp100Datas@CDetector@@UAGJQAEFI0PAF@Z 10007680 f   Detector.obj
 0001:00006800       ?GetIDsOfNames@?$IDispatchImpl@UIDetector@@$1?IID_IDetector@@3U_GUID@@B$1?LIBID_XRFNetLib@@3U3@B$00$0A@VCComTypeInfoHolder@ATL@@@ATL@@UAGJABU_GUID@@PAPA_WIKPAJ@Z 10007800 f i Detector.obj
 0001:00006820       ?GetLastError@CDetector@@EAEPB_WXZ 10007820 f i Detector.obj
 0001:00006830       ?GetTypeInfo@?$IDispatchImpl@UIDetector@@$1?IID_IDetector@@3U_GUID@@B$1?LIBID_XRFNetLib@@3U3@B$00$0A@VCComTypeInfoHolder@ATL@@@ATL@@UAGJIKPAPAUITypeInfo@@@Z 10007830 f i Detector.obj
 0001:00006890       ?ID@CDetector@@EAEIXZ      10007890 f i Detector.obj
 0001:000068a0       ?Invoke@?$IDispatchImpl@UIDetector@@$1?IID_IDetector@@3U_GUID@@B$1?LIBID_XRFNetLib@@3U3@B$00$0A@VCComTypeInfoHolder@ATL@@@ATL@@UAGJJABU_GUID@@KGPAUtagDISPPARAMS@@PAUtagVARIANT@@PAUtagEXCEPINFO@@PAI@Z 100078a0 f i Detector.obj
 0001:000068f0       ?Name@CDetector@@EAEPB_WXZ 100078f0 f i Detector.obj
 0001:00006910       ?OnReceive@CDetector@@EAEXW4TransportID@NetLib@@PAVIUnpacking@3@@Z 10007910 f   Detector.obj
 0001:00006b30       ?Procedure@CDetector@@EAEXPB_WIJ@Z 10007b30 f   Detector.obj
 0001:00006bf0       ?QueryInterface@?$CComAggObject@VCDetector@@@ATL@@UAGJABU_GUID@@PAPAX@Z 10007bf0 f i Detector.obj
 0001:00006c60       ?QueryInterface@?$CComContainedObject@VCDetector@@@ATL@@UAGJABU_GUID@@PAPAX@Z 10007c60 f i Detector.obj
 0001:00006c80       ?QueryInterface@?$CComObject@VCDetector@@@ATL@@UAGJABU_GUID@@PAPAX@Z 10007c80 f i Detector.obj
 0001:00006ca0       ?Release@?$CComContainedObject@VCDetector@@@ATL@@UAGKXZ 10007ca0 f i Detector.obj
 0001:00006cc0       ?Release@?$CComObject@VCDetector@@@ATL@@UAGKXZ 10007cc0 f i Detector.obj
 0001:00006d40       ?SetCallback@CDetector@@UAGJPAUIDetectorCallBack@@@Z 10007d40 f   Detector.obj
 0001:00006d80       ?SetChannelCount@CDetector@@UAGJG@Z 10007d80 f   Detector.obj
 0001:00006da0       ?SetDpp100Parameter@CDetector@@UAGJQAEF@Z 10007da0 f   Detector.obj
 0001:00006e30       ?compare@?$basic_string@_WU?$char_traits@_W@std@@V?$allocator@_W@2@@std@@QBEHIIPB_WI@Z 10007e30 f i Detector.obj
 0001:00006ec0       ___local_stdio_printf_options 10007ec0 f i Detector.obj
 0001:00006ed0       _swprintf_s                10007ed0 f i Detector.obj
 0001:00006f00       _CStdStubBuffer_Release@4  10007f00 f   dlldatax.obj
 0001:00006f20       _CStdStubBuffer2_Release@4 10007f20 f   dlldatax.obj
 0001:00006f40       _PrxDllCanUnloadNow@0      10007f40 f   dlldatax.obj
 0001:00006f50       _PrxDllGetClassObject@12   10007f50 f   dlldatax.obj
 0001:00006f90       _PrxDllMain@12             10007f90 f   dlldatax.obj
 0001:00006fb0       _PrxDllRegisterServer@0    10007fb0 f   dlldatax.obj
 0001:00006ff0       _PrxDllUnregisterServer@0  10007ff0 f   dlldatax.obj
 0001:00007030       ??0?$CAtlDllModuleT@VCXRFNetModule@@@ATL@@QAE@XZ 10008030 f i dllmain.obj
 0001:00007080       ??0CAtlModule@ATL@@QAE@XZ  10008080 f i dllmain.obj
 0001:000070f0       ??1?$CAtlDllModuleT@VCXRFNetModule@@@ATL@@UAE@XZ 100080f0 f i dllmain.obj
 0001:000071a0       ??_GCXRFNetModule@@UAEPAXI@Z 100081a0 f i dllmain.obj
 0001:000071a0       ??_ECXRFNetModule@@UAEPAXI@Z 100081a0 f i dllmain.obj
 0001:000071d0       ?AddCommonRGSReplacements@?$CAtlModuleT@VCXRFNetModule@@@ATL@@UAEJPAUIRegistrarBase@@@Z 100081d0 f i dllmain.obj
 0001:000071f0       ?AtlCallTermFunc@ATL@@YGXPAU_ATL_MODULE70@1@@Z 100081f0 f i dllmain.obj
 0001:00007240       ?GetGITPtr@CAtlModule@ATL@@UAEJPAPAUIGlobalInterfaceTable@@@Z 10008240 f i dllmain.obj
 0001:00007290       ?GetLockCount@CAtlModule@ATL@@UAEJXZ 10008290 f i dllmain.obj
 0001:000072a0       ?Lock@CAtlModule@ATL@@UAEJXZ 100082a0 f i dllmain.obj
 0001:000072b0       ?Term@CAtlComModule@ATL@@QAEXXZ 100082b0 f i dllmain.obj
 0001:00007300       ?Unlock@CAtlModule@ATL@@UAEJXZ 10008300 f i dllmain.obj
 0001:00007310       ?rfind@?$basic_string@_WU?$char_traits@_W@std@@V?$allocator@_W@2@@std@@QBEIPB_WII@Z 10008310 f i dllmain.obj
 0001:000073d0       _DllMain@12                100083d0 f   dllmain.obj
 0001:00007560       ?UpdateRegistry@CElectromagnet@@SGJH@Z 10008560 f i Electromagnet.obj
 0001:00007580       ?CreateInstance@?$CComCreator2@V?$CComCreator@V?$CComObject@VCElectromagnet@@@ATL@@@ATL@@V?$CComCreator@V?$CComAggObject@VCElectromagnet@@@ATL@@@2@@ATL@@SGJPAXABU_GUID@@PAPAX@Z 10008580 f i Electromagnet.obj
 0001:000075a0       ??0?$CComAggObject@VCElectromagnet@@@ATL@@QAE@PAX@Z 100085a0 f i Electromagnet.obj
 0001:00007650       ??0?$CComObject@VCElectromagnet@@@ATL@@QAE@PAX@Z 10008650 f i Electromagnet.obj
 0001:000076f0       ??1?$CComAggObject@VCElectromagnet@@@ATL@@UAE@XZ 100086f0 f i Electromagnet.obj
 0001:000077b0       ??1?$CComObject@VCElectromagnet@@@ATL@@UAE@XZ 100087b0 f i Electromagnet.obj
 0001:00007870       ??_G?$CComAggObject@VCElectromagnet@@@ATL@@UAEPAXI@Z 10008870 f i Electromagnet.obj
 0001:00007870       ??_E?$CComAggObject@VCElectromagnet@@@ATL@@UAEPAXI@Z 10008870 f i Electromagnet.obj
 0001:000078a0       ??_G?$CComObject@VCElectromagnet@@@ATL@@UAEPAXI@Z 100088a0 f i Electromagnet.obj
 0001:000078a0       ??_E?$CComObject@VCElectromagnet@@@ATL@@UAEPAXI@Z 100088a0 f i Electromagnet.obj
 0001:000078d0       ?Close@CElectromagnet@@UAGJXZ 100088d0 f   Electromagnet.obj
 0001:00007940       ?CreateInstance@?$CComCreator@V?$CComAggObject@VCElectromagnet@@@ATL@@@ATL@@SGJPAXABU_GUID@@PAPAX@Z 10008940 f i Electromagnet.obj
 0001:00007a60       ?CreateInstance@?$CComCreator@V?$CComObject@VCElectromagnet@@@ATL@@@ATL@@SGJPAXABU_GUID@@PAPAX@Z 10008a60 f i Electromagnet.obj
 0001:00007b90       ?GetIDsOfNames@?$IDispatchImpl@UIElectromagnet@@$1?IID_IElectromagnet@@3U_GUID@@B$1?LIBID_XRFNetLib@@3U3@B$00$0A@VCComTypeInfoHolder@ATL@@@ATL@@UAGJABU_GUID@@PAPA_WIKPAJ@Z 10008b90 f i Electromagnet.obj
 0001:00007bb0       ?GetTypeInfo@?$IDispatchImpl@UIElectromagnet@@$1?IID_IElectromagnet@@3U_GUID@@B$1?LIBID_XRFNetLib@@3U3@B$00$0A@VCComTypeInfoHolder@ATL@@@ATL@@UAGJIKPAPAUITypeInfo@@@Z 10008bb0 f i Electromagnet.obj
 0001:00007c10       ?ID@CElectromagnet@@EAEIXZ 10008c10 f i Electromagnet.obj
 0001:00007c20       ?Invoke@?$IDispatchImpl@UIElectromagnet@@$1?IID_IElectromagnet@@3U_GUID@@B$1?LIBID_XRFNetLib@@3U3@B$00$0A@VCComTypeInfoHolder@ATL@@@ATL@@UAGJJABU_GUID@@KGPAUtagDISPPARAMS@@PAUtagVARIANT@@PAUtagEXCEPINFO@@PAI@Z 10008c20 f i Electromagnet.obj
 0001:00007c70       ?ID@CHighVoltage@@EAEIXZ   10008c70 f i HighVoltage.obj
 0001:00007c70       ?IsRelay@CElectromagnet@@EAEHXZ 10008c70 f i Electromagnet.obj
 0001:00007c70       ?IsRelay@CHighVoltage@@EAEHXZ 10008c70 f i HighVoltage.obj
 0001:00007c70       ?IsRelay@CVacuumPump@@EAEHXZ 10008c70 f i VacuumPump.obj
 0001:00007c70       ?IsRelay@CHeightLaser@@EAEHXZ 10008c70 f i HeightLaser.obj
 0001:00007c70       ?IsRelay@CDetector@@EAEHXZ 10008c70 f i Detector.obj
 0001:00007c70       ?IsRelay@CXRFNetwork@@EAEHXZ 10008c70 f i XRFNetwork.obj
 0001:00007c70       ?IsRelay@CApparatus@@EAEHXZ 10008c70 f i Apparatus.obj
 0001:00007c70       ?IsRelay@CXRFRayTube@@EAEHXZ 10008c70 f i XRFRayTube.obj
 0001:00007c70       ?IsRelay@CSurfaceSource@@EAEHXZ 10008c70 f i SurfaceSource.obj
 0001:00007c70       ?IsRelay@CMotorControl@@EAEHXZ 10008c70 f i MotorControl.obj
 0001:00007c80       ?Name@CElectromagnet@@EAEPB_WXZ 10008c80 f i Electromagnet.obj
 0001:00007ca0       ?Open@CElectromagnet@@UAGJXZ 10008ca0 f   Electromagnet.obj
 0001:00007d10       ?QueryInterface@?$CComAggObject@VCElectromagnet@@@ATL@@UAGJABU_GUID@@PAPAX@Z 10008d10 f i Electromagnet.obj
 0001:00007d80       ?QueryInterface@?$CComObject@VCElectromagnet@@@ATL@@UAGJABU_GUID@@PAPAX@Z 10008d80 f i Electromagnet.obj
 0001:00007da0       ??$_Buynode@ABQAVIEventListener@@@?$_List_buy@PAVIEventListener@@V?$allocator@PAVIEventListener@@@std@@@std@@QAEPAU?$_List_node@PAVIEventListener@@PAX@1@PAU21@0ABQAVIEventListener@@@Z 10008da0 f i EventMgr.obj
 0001:00007dc0       ??$_Buynode@ABUpiecewise_construct_t@std@@V?$tuple@ABV?$basic_string@_WU?$char_traits@_W@std@@V?$allocator@_W@2@@std@@@2@V?$tuple@$$V@2@@?$_Tree_comp_alloc@V?$_Tmap_traits@V?$basic_string@_WU?$char_traits@_W@std@@V?$allocator@_W@2@@std@@PAV?$list@PAVIEventListener@@V?$allocator@PAVIEventListener@@@std@@@2@U?$less@V?$basic_string@_WU?$char_traits@_W@std@@V?$allocator@_W@2@@std@@@2@V?$allocator@U?$pair@$$CBV?$basic_string@_WU?$char_traits@_W@std@@V?$allocator@_W@2@@std@@PAV?$list@PAVIEventListener@@V?$allocator@PAVIEventListener@@@std@@@2@@std@@@2@$0A@@std@@@std@@QAEPAU?$_Tree_node@U?$pair@$$CBV?$basic_string@_WU?$char_traits@_W@std@@V?$allocator@_W@2@@std@@PAV?$list@PAVIEventListener@@V?$allocator@PAVIEventListener@@@std@@@2@@std@@PAX@1@ABUpiecewise_construct_t@1@$$QAV?$tuple@ABV?$basic_string@_WU?$char_traits@_W@std@@V?$allocator@_W@2@@std@@@1@$$QAV?$tuple@$$V@1@@Z 10008dc0 f i EventMgr.obj
 0001:00007e80       ??$_Buynode@ABV?$basic_string@_WU?$char_traits@_W@std@@V?$allocator@_W@2@@std@@@?$_List_buy@V?$basic_string@_WU?$char_traits@_W@std@@V?$allocator@_W@2@@std@@V?$allocator@V?$basic_string@_WU?$char_traits@_W@std@@V?$allocator@_W@2@@std@@@2@@std@@QAEPAU?$_List_node@V?$basic_string@_WU?$char_traits@_W@std@@V?$allocator@_W@2@@std@@PAX@1@PAU21@0ABV?$basic_string@_WU?$char_traits@_W@std@@V?$allocator@_W@2@@1@@Z 10008e80 f i EventMgr.obj
 0001:00007f40       ??$_Insert_at@AAU?$pair@$$CBV?$basic_string@_WU?$char_traits@_W@std@@V?$allocator@_W@2@@std@@PAV?$list@PAVIEventListener@@V?$allocator@PAVIEventListener@@@std@@@2@@std@@PAU?$_Tree_node@U?$pair@$$CBV?$basic_string@_WU?$char_traits@_W@std@@V?$allocator@_W@2@@std@@PAV?$list@PAVIEventListener@@V?$allocator@PAVIEventListener@@@std@@@2@@std@@PAX@2@@?$_Tree@V?$_Tmap_traits@V?$basic_string@_WU?$char_traits@_W@std@@V?$allocator@_W@2@@std@@PAV?$list@PAVIEventListener@@V?$allocator@PAVIEventListener@@@std@@@2@U?$less@V?$basic_string@_WU?$char_traits@_W@std@@V?$allocator@_W@2@@std@@@2@V?$allocator@U?$pair@$$CBV?$basic_string@_WU?$char_traits@_W@std@@V?$allocator@_W@2@@std@@PAV?$list@PAVIEventListener@@V?$allocator@PAVIEventListener@@@std@@@2@@std@@@2@$0A@@std@@@std@@IAE?AV?$_Tree_iterator@V?$_Tree_val@U?$_Tree_simple_types@U?$pair@$$CBV?$basic_string@_WU?$char_traits@_W@std@@V?$allocator@_W@2@@std@@PAV?$list@PAVIEventListener@@V?$allocator@PAVIEventListener@@@std@@@2@@std@@@std@@@std@@@1@_NPAU?$_Tree_node@U?$pair@$$CBV?$basic_string@_WU?$char_traits@_W@std@@V?$allocator@_W@2@@std@@PAV?$list@PAVIEventListener@@V?$allocator@PAVIEventListener@@@std@@@2@@std@@PAX@1@AAU?$pair@$$CBV?$basic_string@_WU?$char_traits@_W@std@@V?$allocator@_W@2@@std@@PAV?$list@PAVIEventListener@@V?$allocator@PAVIEventListener@@@std@@@2@@1@1@Z 10008f40 f i EventMgr.obj
 0001:00008110       ??$_Insert_hint@AAU?$pair@$$CBV?$basic_string@_WU?$char_traits@_W@std@@V?$allocator@_W@2@@std@@PAV?$list@PAVIEventListener@@V?$allocator@PAVIEventListener@@@std@@@2@@std@@PAU?$_Tree_node@U?$pair@$$CBV?$basic_string@_WU?$char_traits@_W@std@@V?$allocator@_W@2@@std@@PAV?$list@PAVIEventListener@@V?$allocator@PAVIEventListener@@@std@@@2@@std@@PAX@2@@?$_Tree@V?$_Tmap_traits@V?$basic_string@_WU?$char_traits@_W@std@@V?$allocator@_W@2@@std@@PAV?$list@PAVIEventListener@@V?$allocator@PAVIEventListener@@@std@@@2@U?$less@V?$basic_string@_WU?$char_traits@_W@std@@V?$allocator@_W@2@@std@@@2@V?$allocator@U?$pair@$$CBV?$basic_string@_WU?$char_traits@_W@std@@V?$allocator@_W@2@@std@@PAV?$list@PAVIEventListener@@V?$allocator@PAVIEventListener@@@std@@@2@@std@@@2@$0A@@std@@@std@@IAE?AV?$_Tree_iterator@V?$_Tree_val@U?$_Tree_simple_types@U?$pair@$$CBV?$basic_string@_WU?$char_traits@_W@std@@V?$allocator@_W@2@@std@@PAV?$list@PAVIEventListener@@V?$allocator@PAVIEventListener@@@std@@@2@@std@@@std@@@std@@@1@V?$_Tree_const_iterator@V?$_Tree_val@U?$_Tree_simple_types@U?$pair@$$CBV?$basic_string@_WU?$char_traits@_W@std@@V?$allocator@_W@2@@std@@PAV?$list@PAVIEventListener@@V?$allocator@PAVIEventListener@@@std@@@2@@std@@@std@@@std@@@1@AAU?$pair@$$CBV?$basic_string@_WU?$char_traits@_W@std@@V?$allocator@_W@2@@std@@PAV?$list@PAVIEventListener@@V?$allocator@PAVIEventListener@@@std@@@2@@1@PAU?$_Tree_node@U?$pair@$$CBV?$basic_string@_WU?$char_traits@_W@std@@V?$allocator@_W@2@@std@@PAV?$list@PAVIEventListener@@V?$allocator@PAVIEventListener@@@std@@@2@@std@@PAX@1@@Z 10009110 f i EventMgr.obj
 0001:000082e0       ??$_Insert_nohint@AAU?$pair@$$CBV?$basic_string@_WU?$char_traits@_W@std@@V?$allocator@_W@2@@std@@PAV?$list@PAVIEventListener@@V?$allocator@PAVIEventListener@@@std@@@2@@std@@PAU?$_Tree_node@U?$pair@$$CBV?$basic_string@_WU?$char_traits@_W@std@@V?$allocator@_W@2@@std@@PAV?$list@PAVIEventListener@@V?$allocator@PAVIEventListener@@@std@@@2@@std@@PAX@2@@?$_Tree@V?$_Tmap_traits@V?$basic_string@_WU?$char_traits@_W@std@@V?$allocator@_W@2@@std@@PAV?$list@PAVIEventListener@@V?$allocator@PAVIEventListener@@@std@@@2@U?$less@V?$basic_string@_WU?$char_traits@_W@std@@V?$allocator@_W@2@@std@@@2@V?$allocator@U?$pair@$$CBV?$basic_string@_WU?$char_traits@_W@std@@V?$allocator@_W@2@@std@@PAV?$list@PAVIEventListener@@V?$allocator@PAVIEventListener@@@std@@@2@@std@@@2@$0A@@std@@@std@@IAE?AU?$pair@V?$_Tree_iterator@V?$_Tree_val@U?$_Tree_simple_types@U?$pair@$$CBV?$basic_string@_WU?$char_traits@_W@std@@V?$allocator@_W@2@@std@@PAV?$list@PAVIEventListener@@V?$allocator@PAVIEventListener@@@std@@@2@@std@@@std@@@std@@@std@@_N@1@_NAAU?$pair@$$CBV?$basic_string@_WU?$char_traits@_W@std@@V?$allocator@_W@2@@std@@PAV?$list@PAVIEventListener@@V?$allocator@PAVIEventListener@@@std@@@2@@1@PAU?$_Tree_node@U?$pair@$$CBV?$basic_string@_WU?$char_traits@_W@std@@V?$allocator@_W@2@@std@@PAV?$list@PAVIEventListener@@V?$allocator@PAVIEventListener@@@std@@@2@@std@@PAX@1@@Z 100092e0 f i EventMgr.obj
 0001:00008450       ??$_Lbound@V?$basic_string@_WU?$char_traits@_W@std@@V?$allocator@_W@2@@std@@@?$_Tree@V?$_Tmap_traits@V?$basic_string@_WU?$char_traits@_W@std@@V?$allocator@_W@2@@std@@PAV?$list@PAVIEventListener@@V?$allocator@PAVIEventListener@@@std@@@2@U?$less@V?$basic_string@_WU?$char_traits@_W@std@@V?$allocator@_W@2@@std@@@2@V?$allocator@U?$pair@$$CBV?$basic_string@_WU?$char_traits@_W@std@@V?$allocator@_W@2@@std@@PAV?$list@PAVIEventListener@@V?$allocator@PAVIEventListener@@@std@@@2@@std@@@2@$0A@@std@@@std@@IBEPAU?$_Tree_node@U?$pair@$$CBV?$basic_string@_WU?$char_traits@_W@std@@V?$allocator@_W@2@@std@@PAV?$list@PAVIEventListener@@V?$allocator@PAVIEventListener@@@std@@@2@@std@@PAX@1@ABV?$basic_string@_WU?$char_traits@_W@std@@V?$allocator@_W@2@@1@@Z 10009450 f i EventMgr.obj
 0001:000084f0       ??0CEventMgr@@QAE@XZ       100094f0 f   EventMgr.obj
 0001:000085a0       ??1?$list@V?$basic_string@_WU?$char_traits@_W@std@@V?$allocator@_W@2@@std@@V?$allocator@V?$basic_string@_WU?$char_traits@_W@std@@V?$allocator@_W@2@@std@@@2@@std@@QAE@XZ 100095a0 f i EventMgr.obj
 0001:000085c0       ??1CEventMgr@@QAE@XZ       100095c0 f   EventMgr.obj
 0001:00008670       ??1CLock@Skyray@@QAE@XZ    10009670 f i EventMgr.obj
 0001:00008680       ??A?$map@V?$basic_string@_WU?$char_traits@_W@std@@V?$allocator@_W@2@@std@@PAV?$list@PAVIEventListener@@V?$allocator@PAVIEventListener@@@std@@@2@U?$less@V?$basic_string@_WU?$char_traits@_W@std@@V?$allocator@_W@2@@std@@@2@V?$allocator@U?$pair@$$CBV?$basic_string@_WU?$char_traits@_W@std@@V?$allocator@_W@2@@std@@PAV?$list@PAVIEventListener@@V?$allocator@PAVIEventListener@@@std@@@2@@std@@@2@@std@@QAEAAPAV?$list@PAVIEventListener@@V?$allocator@PAVIEventListener@@@std@@@1@ABV?$basic_string@_WU?$char_traits@_W@std@@V?$allocator@_W@2@@1@@Z 10009680 f i EventMgr.obj
 0001:00008740       ??E?$_Tree_unchecked_const_iterator@V?$_Tree_val@U?$_Tree_simple_types@U?$pair@$$CBV?$basic_string@_WU?$char_traits@_W@std@@V?$allocator@_W@2@@std@@PAV?$list@PAVIEventListener@@V?$allocator@PAVIEventListener@@@std@@@2@@std@@@std@@@std@@U_Iterator_base0@2@@std@@QAEAAV01@XZ 10009740 f i EventMgr.obj
 0001:00008790       ??F?$_Tree_unchecked_const_iterator@V?$_Tree_val@U?$_Tree_simple_types@U?$pair@$$CBV?$basic_string@_WU?$char_traits@_W@std@@V?$allocator@_W@2@@std@@PAV?$list@PAVIEventListener@@V?$allocator@PAVIEventListener@@@std@@@2@@std@@@std@@@std@@U_Iterator_base0@2@@std@@QAEAAV01@XZ 10009790 f i EventMgr.obj
 0001:000087f0       ??R?$less@V?$basic_string@_WU?$char_traits@_W@std@@V?$allocator@_W@2@@std@@@std@@QBE_NABV?$basic_string@_WU?$char_traits@_W@std@@V?$allocator@_W@2@@1@0@Z 100097f0 f i EventMgr.obj
 0001:00008850       ?APCProc@CEventMgr@@CGXK@Z 10009850 f   EventMgr.obj
 0001:000088c0       ?APCWndProc@CEventMgr@@CGJPAUHWND__@@IIJ@Z 100098c0 f   EventMgr.obj
 0001:000088e0       ?EventIsExist@CEventMgr@@UAEHPB_W@Z 100098e0 f   EventMgr.obj
 0001:000089b0       ?Hook@CEventMgr@@UAEHPB_WPAVIEventListener@@@Z 100099b0 f   EventMgr.obj
 0001:00008b30       ?IsTraversal@CEventMgr@@AAEHABV?$basic_string@_WU?$char_traits@_W@std@@V?$allocator@_W@2@@std@@@Z 10009b30 f   EventMgr.obj
 0001:00008bd0       ?Notify@CEventMgr@@UAEHPB_WIJ@Z 10009bd0 f   EventMgr.obj
 0001:00008ca0       ?Procedure@CEventMgr@@AAEHPB_WIJ@Z 10009ca0 f   EventMgr.obj
 0001:00008f20       ?PushTraversal@CEventMgr@@AAEXABV?$basic_string@_WU?$char_traits@_W@std@@V?$allocator@_W@2@@std@@@Z 10009f20 f   EventMgr.obj
 0001:00008f70       ?Register@CEventMgr@@UAEHPB_W@Z 10009f70 f   EventMgr.obj
 0001:00009080       ?SetProcedureContext@CEventMgr@@UAEXXZ 1000a080 f   EventMgr.obj
 0001:000090f0       ?Unhook@CEventMgr@@UAEXPB_WPAVIEventListener@@@Z 1000a0f0 f   EventMgr.obj
 0001:00009240       ?Unregister@CEventMgr@@UAEXPB_W@Z 1000a240 f   EventMgr.obj
 0001:00009310       ?_Buyheadnode@?$_Tree_comp_alloc@V?$_Tmap_traits@V?$basic_string@_WU?$char_traits@_W@std@@V?$allocator@_W@2@@std@@PAV?$list@PAVIEventListener@@V?$allocator@PAVIEventListener@@@std@@@2@U?$less@V?$basic_string@_WU?$char_traits@_W@std@@V?$allocator@_W@2@@std@@@2@V?$allocator@U?$pair@$$CBV?$basic_string@_WU?$char_traits@_W@std@@V?$allocator@_W@2@@std@@PAV?$list@PAVIEventListener@@V?$allocator@PAVIEventListener@@@std@@@2@@std@@@2@$0A@@std@@@std@@QAEPAU?$_Tree_node@U?$pair@$$CBV?$basic_string@_WU?$char_traits@_W@std@@V?$allocator@_W@2@@std@@PAV?$list@PAVIEventListener@@V?$allocator@PAVIEventListener@@@std@@@2@@std@@PAX@2@XZ 1000a310 f i EventMgr.obj
 0001:00009340       ?_Buynode0@?$_List_alloc@U?$_List_base_types@PAVIEventListener@@V?$allocator@PAVIEventListener@@@std@@@std@@@std@@QAEPAU?$_List_node@PAVIEventListener@@PAX@2@PAU32@0@Z 1000a340 f i EventMgr.obj
 0001:00009380       ?_Buynode0@?$_List_alloc@U?$_List_base_types@V?$basic_string@_WU?$char_traits@_W@std@@V?$allocator@_W@2@@std@@V?$allocator@V?$basic_string@_WU?$char_traits@_W@std@@V?$allocator@_W@2@@std@@@2@@std@@@std@@QAEPAU?$_List_node@V?$basic_string@_WU?$char_traits@_W@std@@V?$allocator@_W@2@@std@@PAX@2@PAU32@0@Z 1000a380 f i EventMgr.obj
 0001:000093c0       ?_Buynode0@?$_Tree_comp_alloc@V?$_Tmap_traits@V?$basic_string@_WU?$char_traits@_W@std@@V?$allocator@_W@2@@std@@PAV?$list@PAVIEventListener@@V?$allocator@PAVIEventListener@@@std@@@2@U?$less@V?$basic_string@_WU?$char_traits@_W@std@@V?$allocator@_W@2@@std@@@2@V?$allocator@U?$pair@$$CBV?$basic_string@_WU?$char_traits@_W@std@@V?$allocator@_W@2@@std@@PAV?$list@PAVIEventListener@@V?$allocator@PAVIEventListener@@@std@@@2@@std@@@2@$0A@@std@@@std@@QAEPAU?$_Tree_node@U?$pair@$$CBV?$basic_string@_WU?$char_traits@_W@std@@V?$allocator@_W@2@@std@@PAV?$list@PAVIEventListener@@V?$allocator@PAVIEventListener@@@std@@@2@@std@@PAX@2@XZ 1000a3c0 f i EventMgr.obj
 0001:00009400       ?_Destroy_if_not_nil@?$_Tree@V?$_Tmap_traits@V?$basic_string@_WU?$char_traits@_W@std@@V?$allocator@_W@2@@std@@PAV?$list@PAVIEventListener@@V?$allocator@PAVIEventListener@@@std@@@2@U?$less@V?$basic_string@_WU?$char_traits@_W@std@@V?$allocator@_W@2@@std@@@2@V?$allocator@U?$pair@$$CBV?$basic_string@_WU?$char_traits@_W@std@@V?$allocator@_W@2@@std@@PAV?$list@PAVIEventListener@@V?$allocator@PAVIEventListener@@@std@@@2@@std@@@2@$0A@@std@@@std@@IAEXPAU?$_Tree_node@U?$pair@$$CBV?$basic_string@_WU?$char_traits@_W@std@@V?$allocator@_W@2@@std@@PAV?$list@PAVIEventListener@@V?$allocator@PAVIEventListener@@@std@@@2@@std@@PAX@2@@Z 1000a400 f i EventMgr.obj
 0001:00009450       ?_Erase@?$_Tree@V?$_Tmap_traits@V?$basic_string@_WU?$char_traits@_W@std@@V?$allocator@_W@2@@std@@PAV?$list@PAVIEventListener@@V?$allocator@PAVIEventListener@@@std@@@2@U?$less@V?$basic_string@_WU?$char_traits@_W@std@@V?$allocator@_W@2@@std@@@2@V?$allocator@U?$pair@$$CBV?$basic_string@_WU?$char_traits@_W@std@@V?$allocator@_W@2@@std@@PAV?$list@PAVIEventListener@@V?$allocator@PAVIEventListener@@@std@@@2@@std@@@2@$0A@@std@@@std@@IAEXPAU?$_Tree_node@U?$pair@$$CBV?$basic_string@_WU?$char_traits@_W@std@@V?$allocator@_W@2@@std@@PAV?$list@PAVIEventListener@@V?$allocator@PAVIEventListener@@@std@@@2@@std@@PAX@2@@Z 1000a450 f i EventMgr.obj
 0001:00009500       ?_Lrotate@?$_Tree@V?$_Tmap_traits@V?$basic_string@_WU?$char_traits@_W@std@@V?$allocator@_W@2@@std@@PAV?$list@PAVIEventListener@@V?$allocator@PAVIEventListener@@@std@@@2@U?$less@V?$basic_string@_WU?$char_traits@_W@std@@V?$allocator@_W@2@@std@@@2@V?$allocator@U?$pair@$$CBV?$basic_string@_WU?$char_traits@_W@std@@V?$allocator@_W@2@@std@@PAV?$list@PAVIEventListener@@V?$allocator@PAVIEventListener@@@std@@@2@@std@@@2@$0A@@std@@@std@@IAEXPAU?$_Tree_node@U?$pair@$$CBV?$basic_string@_WU?$char_traits@_W@std@@V?$allocator@_W@2@@std@@PAV?$list@PAVIEventListener@@V?$allocator@PAVIEventListener@@@std@@@2@@std@@PAX@2@@Z 1000a500 f i EventMgr.obj
 0001:00009560       ?_Rrotate@?$_Tree@V?$_Tmap_traits@V?$basic_string@_WU?$char_traits@_W@std@@V?$allocator@_W@2@@std@@PAV?$list@PAVIEventListener@@V?$allocator@PAVIEventListener@@@std@@@2@U?$less@V?$basic_string@_WU?$char_traits@_W@std@@V?$allocator@_W@2@@std@@@2@V?$allocator@U?$pair@$$CBV?$basic_string@_WU?$char_traits@_W@std@@V?$allocator@_W@2@@std@@PAV?$list@PAVIEventListener@@V?$allocator@PAVIEventListener@@@std@@@2@@std@@@2@$0A@@std@@@std@@IAEXPAU?$_Tree_node@U?$pair@$$CBV?$basic_string@_WU?$char_traits@_W@std@@V?$allocator@_W@2@@std@@PAV?$list@PAVIEventListener@@V?$allocator@PAVIEventListener@@@std@@@2@@std@@PAX@2@@Z 1000a560 f i EventMgr.obj
 0001:000095c0       ?clear@?$list@V?$basic_string@_WU?$char_traits@_W@std@@V?$allocator@_W@2@@std@@V?$allocator@V?$basic_string@_WU?$char_traits@_W@std@@V?$allocator@_W@2@@std@@@2@@std@@QAEXXZ 1000a5c0 f i EventMgr.obj
 0001:00009660       ?erase@?$_Tree@V?$_Tmap_traits@V?$basic_string@_WU?$char_traits@_W@std@@V?$allocator@_W@2@@std@@PAV?$list@PAVIEventListener@@V?$allocator@PAVIEventListener@@@std@@@2@U?$less@V?$basic_string@_WU?$char_traits@_W@std@@V?$allocator@_W@2@@std@@@2@V?$allocator@U?$pair@$$CBV?$basic_string@_WU?$char_traits@_W@std@@V?$allocator@_W@2@@std@@PAV?$list@PAVIEventListener@@V?$allocator@PAVIEventListener@@@std@@@2@@std@@@2@$0A@@std@@@std@@QAE?AV?$_Tree_iterator@V?$_Tree_val@U?$_Tree_simple_types@U?$pair@$$CBV?$basic_string@_WU?$char_traits@_W@std@@V?$allocator@_W@2@@std@@PAV?$list@PAVIEventListener@@V?$allocator@PAVIEventListener@@@std@@@2@@std@@@std@@@std@@@2@V?$_Tree_const_iterator@V?$_Tree_val@U?$_Tree_simple_types@U?$pair@$$CBV?$basic_string@_WU?$char_traits@_W@std@@V?$allocator@_W@2@@std@@PAV?$list@PAVIEventListener@@V?$allocator@PAVIEventListener@@@std@@@2@@std@@@std@@@std@@@2@0@Z 1000a660 f i EventMgr.obj
 0001:00009750       ?erase@?$_Tree@V?$_Tmap_traits@V?$basic_string@_WU?$char_traits@_W@std@@V?$allocator@_W@2@@std@@PAV?$list@PAVIEventListener@@V?$allocator@PAVIEventListener@@@std@@@2@U?$less@V?$basic_string@_WU?$char_traits@_W@std@@V?$allocator@_W@2@@std@@@2@V?$allocator@U?$pair@$$CBV?$basic_string@_WU?$char_traits@_W@std@@V?$allocator@_W@2@@std@@PAV?$list@PAVIEventListener@@V?$allocator@PAVIEventListener@@@std@@@2@@std@@@2@$0A@@std@@@std@@QAE?AV?$_Tree_iterator@V?$_Tree_val@U?$_Tree_simple_types@U?$pair@$$CBV?$basic_string@_WU?$char_traits@_W@std@@V?$allocator@_W@2@@std@@PAV?$list@PAVIEventListener@@V?$allocator@PAVIEventListener@@@std@@@2@@std@@@std@@@std@@@2@V?$_Tree_const_iterator@V?$_Tree_val@U?$_Tree_simple_types@U?$pair@$$CBV?$basic_string@_WU?$char_traits@_W@std@@V?$allocator@_W@2@@std@@PAV?$list@PAVIEventListener@@V?$allocator@PAVIEventListener@@@std@@@2@@std@@@std@@@std@@@2@@Z 1000a750 f i EventMgr.obj
 0001:00009a40       ?erase@?$list@PAVIEventListener@@V?$allocator@PAVIEventListener@@@std@@@std@@QAE?AV?$_List_iterator@V?$_List_val@U?$_List_simple_types@PAVIEventListener@@@std@@@std@@@2@V?$_List_const_iterator@V?$_List_val@U?$_List_simple_types@PAVIEventListener@@@std@@@std@@@2@@Z 1000aa40 f i EventMgr.obj
 0001:00009a80       ?erase@?$list@V?$basic_string@_WU?$char_traits@_W@std@@V?$allocator@_W@2@@std@@V?$allocator@V?$basic_string@_WU?$char_traits@_W@std@@V?$allocator@_W@2@@std@@@2@@std@@QAE?AV?$_List_iterator@V?$_List_val@U?$_List_simple_types@V?$basic_string@_WU?$char_traits@_W@std@@V?$allocator@_W@2@@std@@@std@@@std@@@2@V?$_List_const_iterator@V?$_List_val@U?$_List_simple_types@V?$basic_string@_WU?$char_traits@_W@std@@V?$allocator@_W@2@@std@@@std@@@std@@@2@@Z 1000aa80 f i EventMgr.obj
 0001:00009af0       ?find@?$_Tree@V?$_Tmap_traits@V?$basic_string@_WU?$char_traits@_W@std@@V?$allocator@_W@2@@std@@PAV?$list@PAVIEventListener@@V?$allocator@PAVIEventListener@@@std@@@2@U?$less@V?$basic_string@_WU?$char_traits@_W@std@@V?$allocator@_W@2@@std@@@2@V?$allocator@U?$pair@$$CBV?$basic_string@_WU?$char_traits@_W@std@@V?$allocator@_W@2@@std@@PAV?$list@PAVIEventListener@@V?$allocator@PAVIEventListener@@@std@@@2@@std@@@2@$0A@@std@@@std@@QAE?AV?$_Tree_iterator@V?$_Tree_val@U?$_Tree_simple_types@U?$pair@$$CBV?$basic_string@_WU?$char_traits@_W@std@@V?$allocator@_W@2@@std@@PAV?$list@PAVIEventListener@@V?$allocator@PAVIEventListener@@@std@@@2@@std@@@std@@@std@@@2@ABV?$basic_string@_WU?$char_traits@_W@std@@V?$allocator@_W@2@@2@@Z 1000aaf0 f i EventMgr.obj
 0001:00009b80       ?UpdateRegistry@CHeightLaser@@SGJH@Z 1000ab80 f i HeightLaser.obj
 0001:00009ba0       ?CreateInstance@?$CComCreator2@V?$CComCreator@V?$CComObject@VCHeightLaser@@@ATL@@@ATL@@V?$CComCreator@V?$CComAggObject@VCHeightLaser@@@ATL@@@2@@ATL@@SGJPAXABU_GUID@@PAPAX@Z 1000aba0 f i HeightLaser.obj
 0001:00009bc0       ??0?$CComAggObject@VCHeightLaser@@@ATL@@QAE@PAX@Z 1000abc0 f i HeightLaser.obj
 0001:00009c70       ??0?$CComObject@VCHeightLaser@@@ATL@@QAE@PAX@Z 1000ac70 f i HeightLaser.obj
 0001:00009d10       ??1?$CComAggObject@VCHeightLaser@@@ATL@@UAE@XZ 1000ad10 f i HeightLaser.obj
 0001:00009dd0       ??1?$CComObject@VCHeightLaser@@@ATL@@UAE@XZ 1000add0 f i HeightLaser.obj
 0001:00009e90       ??1?$CComContainedObject@VCHighVoltage@@@ATL@@QAE@XZ 1000ae90 f i HighVoltage.obj
 0001:00009e90       ??1?$CComContainedObject@VCElectromagnet@@@ATL@@QAE@XZ 1000ae90 f i Electromagnet.obj
 0001:00009e90       ??1?$CComContainedObject@VCSurfaceSource@@@ATL@@QAE@XZ 1000ae90 f i SurfaceSource.obj
 0001:00009e90       ??1CElectromagnet@@QAE@XZ  1000ae90 f i Electromagnet.obj
 0001:00009e90       ??1?$CComContainedObject@VCHeightLaser@@@ATL@@QAE@XZ 1000ae90 f i HeightLaser.obj
 0001:00009e90       ??1CHighVoltage@@QAE@XZ    1000ae90 f i HighVoltage.obj
 0001:00009e90       ??1CHeightLaser@@QAE@XZ    1000ae90 f i HeightLaser.obj
 0001:00009e90       ??1CSurfaceSource@@QAE@XZ  1000ae90 f i SurfaceSource.obj
 0001:00009ee0       ??_E?$CComAggObject@VCHeightLaser@@@ATL@@UAEPAXI@Z 1000aee0 f i HeightLaser.obj
 0001:00009ee0       ??_G?$CComAggObject@VCHeightLaser@@@ATL@@UAEPAXI@Z 1000aee0 f i HeightLaser.obj
 0001:00009f10       ??_G?$CComObject@VCHeightLaser@@@ATL@@UAEPAXI@Z 1000af10 f i HeightLaser.obj
 0001:00009f10       ??_E?$CComObject@VCHeightLaser@@@ATL@@UAEPAXI@Z 1000af10 f i HeightLaser.obj
 0001:00009f40       ?CreateInstance@?$CComCreator@V?$CComAggObject@VCHeightLaser@@@ATL@@@ATL@@SGJPAXABU_GUID@@PAPAX@Z 1000af40 f i HeightLaser.obj
 0001:0000a060       ?CreateInstance@?$CComCreator@V?$CComObject@VCHeightLaser@@@ATL@@@ATL@@SGJPAXABU_GUID@@PAPAX@Z 1000b060 f i HeightLaser.obj
 0001:0000a190       ?FinalConstruct@?$CComAggObject@VCElectromagnet@@@ATL@@QAEJXZ 1000b190 f i Electromagnet.obj
 0001:0000a190       ?FinalConstruct@?$CComAggObject@VCHighVoltage@@@ATL@@QAEJXZ 1000b190 f i HighVoltage.obj
 0001:0000a190       ?FinalConstruct@?$CComAggObject@VCSurfaceSource@@@ATL@@QAEJXZ 1000b190 f i SurfaceSource.obj
 0001:0000a190       ?FinalConstruct@?$CComAggObject@VCHeightLaser@@@ATL@@QAEJXZ 1000b190 f i HeightLaser.obj
 0001:0000a190       ?FinalConstruct@?$CComAggObject@VCVacuumPump@@@ATL@@QAEJXZ 1000b190 f i VacuumPump.obj
 0001:0000a190       ?FinalConstruct@?$CComAggObject@VCApparatus@@@ATL@@QAEJXZ 1000b190 f i Apparatus.obj
 0001:0000a1d0       ?GetIDsOfNames@?$IDispatchImpl@UIHeightLaser@@$1?IID_IHeightLaser@@3U_GUID@@B$1?LIBID_XRFNetLib@@3U3@B$00$0A@VCComTypeInfoHolder@ATL@@@ATL@@UAGJABU_GUID@@PAPA_WIKPAJ@Z 1000b1d0 f i HeightLaser.obj
 0001:0000a1f0       ?GetLastError@CSurfaceSource@@EAEPB_WXZ 1000b1f0 f i SurfaceSource.obj
 0001:0000a1f0       ?GetLastError@CHeightLaser@@EAEPB_WXZ 1000b1f0 f i HeightLaser.obj
 0001:0000a1f0       ?GetLastError@CMotorControl@@EAEPB_WXZ 1000b1f0 f i MotorControl.obj
 0001:0000a1f0       ?GetLastError@CApparatus@@EAEPB_WXZ 1000b1f0 f i Apparatus.obj
 0001:0000a1f0       ?GetLastError@CElectromagnet@@EAEPB_WXZ 1000b1f0 f i Electromagnet.obj
 0001:0000a1f0       ?GetLastError@CHighVoltage@@EAEPB_WXZ 1000b1f0 f i HighVoltage.obj
 0001:0000a200       ?GetTypeInfo@?$IDispatchImpl@UIHeightLaser@@$1?IID_IHeightLaser@@3U_GUID@@B$1?LIBID_XRFNetLib@@3U3@B$00$0A@VCComTypeInfoHolder@ATL@@@ATL@@UAGJIKPAPAUITypeInfo@@@Z 1000b200 f i HeightLaser.obj
 0001:0000a260       ?ID@CHeightLaser@@EAEIXZ   1000b260 f i HeightLaser.obj
 0001:0000a270       ?Invoke@?$IDispatchImpl@UIHeightLaser@@$1?IID_IHeightLaser@@3U_GUID@@B$1?LIBID_XRFNetLib@@3U3@B$00$0A@VCComTypeInfoHolder@ATL@@@ATL@@UAGJJABU_GUID@@KGPAUtagDISPPARAMS@@PAUtagVARIANT@@PAUtagEXCEPINFO@@PAI@Z 1000b270 f i HeightLaser.obj
 0001:0000a2c0       ?Name@CHeightLaser@@EAEPB_WXZ 1000b2c0 f i HeightLaser.obj
 0001:0000a2e0       ?OnReceive@CVacuumPump@@EAEXW4TransportID@NetLib@@PAVIUnpacking@3@@Z 1000b2e0 f   VacuumPump.obj
 0001:0000a2e0       ?OnReceive@CMotorControl@@EAEXW4TransportID@NetLib@@PAVIUnpacking@3@@Z 1000b2e0 f   MotorControl.obj
 0001:0000a2e0       ?OnReceive@CSurfaceSource@@EAEXW4TransportID@NetLib@@PAVIUnpacking@3@@Z 1000b2e0 f   SurfaceSource.obj
 0001:0000a2e0       ?OnReceive@CHighVoltage@@EAEXW4TransportID@NetLib@@PAVIUnpacking@3@@Z 1000b2e0 f   HighVoltage.obj
 0001:0000a2e0       ?OnReceive@CElectromagnet@@EAEXW4TransportID@NetLib@@PAVIUnpacking@3@@Z 1000b2e0 f   Electromagnet.obj
 0001:0000a2e0       ?OnReceive@CHeightLaser@@EAEXW4TransportID@NetLib@@PAVIUnpacking@3@@Z 1000b2e0 f   HeightLaser.obj
 0001:0000a2f0       ?QueryInterface@?$CComAggObject@VCHeightLaser@@@ATL@@UAGJABU_GUID@@PAPAX@Z 1000b2f0 f i HeightLaser.obj
 0001:0000a360       ?QueryInterface@?$CComObject@VCHeightLaser@@@ATL@@UAGJABU_GUID@@PAPAX@Z 1000b360 f i HeightLaser.obj
 0001:0000a380       ?UpdateRegistry@CHighVoltage@@SGJH@Z 1000b380 f i HighVoltage.obj
 0001:0000a3a0       ?CreateInstance@?$CComCreator2@V?$CComCreator@V?$CComObject@VCHighVoltage@@@ATL@@@ATL@@V?$CComCreator@V?$CComAggObject@VCHighVoltage@@@ATL@@@2@@ATL@@SGJPAXABU_GUID@@PAPAX@Z 1000b3a0 f i HighVoltage.obj
 0001:0000a3c0       ??0?$CComAggObject@VCHighVoltage@@@ATL@@QAE@PAX@Z 1000b3c0 f i HighVoltage.obj
 0001:0000a470       ??0?$CComObject@VCHighVoltage@@@ATL@@QAE@PAX@Z 1000b470 f i HighVoltage.obj
 0001:0000a510       ??1?$CComAggObject@VCHighVoltage@@@ATL@@UAE@XZ 1000b510 f i HighVoltage.obj
 0001:0000a5d0       ??1?$CComObject@VCHighVoltage@@@ATL@@UAE@XZ 1000b5d0 f i HighVoltage.obj
 0001:0000a690       ??_G?$CComAggObject@VCHighVoltage@@@ATL@@UAEPAXI@Z 1000b690 f i HighVoltage.obj
 0001:0000a690       ??_E?$CComAggObject@VCHighVoltage@@@ATL@@UAEPAXI@Z 1000b690 f i HighVoltage.obj
 0001:0000a6c0       ??_G?$CComObject@VCHighVoltage@@@ATL@@UAEPAXI@Z 1000b6c0 f i HighVoltage.obj
 0001:0000a6c0       ??_E?$CComObject@VCHighVoltage@@@ATL@@UAEPAXI@Z 1000b6c0 f i HighVoltage.obj
 0001:0000a6f0       ?AddRef@?$CComContainedObject@VCSurfaceSource@@@ATL@@UAGKXZ 1000b6f0 f i SurfaceSource.obj
 0001:0000a6f0       ?AddRef@?$CComContainedObject@VCHighVoltage@@@ATL@@UAGKXZ 1000b6f0 f i HighVoltage.obj
 0001:0000a6f0       ?AddRef@?$CComContainedObject@VCXRFRayTube@@@ATL@@UAGKXZ 1000b6f0 f i XRFRayTube.obj
 0001:0000a6f0       ?AddRef@?$CComContainedObject@VCApparatus@@@ATL@@UAGKXZ 1000b6f0 f i Apparatus.obj
 0001:0000a6f0       ?AddRef@?$CComContainedObject@VCVacuumPump@@@ATL@@UAGKXZ 1000b6f0 f i VacuumPump.obj
 0001:0000a6f0       ?AddRef@?$CComContainedObject@VCHeightLaser@@@ATL@@UAGKXZ 1000b6f0 f i HeightLaser.obj
 0001:0000a6f0       ?AddRef@?$CComContainedObject@VCMotorControl@@@ATL@@UAGKXZ 1000b6f0 f i MotorControl.obj
 0001:0000a6f0       ?AddRef@?$CComContainedObject@VCElectromagnet@@@ATL@@UAGKXZ 1000b6f0 f i Electromagnet.obj
 0001:0000a710       ?AddRef@?$CComObject@VCElectromagnet@@@ATL@@UAGKXZ 1000b710 f i Electromagnet.obj
 0001:0000a710       ?AddRef@?$CComObject@VCSurfaceSource@@@ATL@@UAGKXZ 1000b710 f i SurfaceSource.obj
 0001:0000a710       ?AddRef@?$CComObject@VCMotorControl@@@ATL@@UAGKXZ 1000b710 f i MotorControl.obj
 0001:0000a710       ?AddRef@?$CComObject@VCHeightLaser@@@ATL@@UAGKXZ 1000b710 f i HeightLaser.obj
 0001:0000a710       ?AddRef@?$CComObject@VCApparatus@@@ATL@@UAGKXZ 1000b710 f i Apparatus.obj
 0001:0000a710       ?AddRef@?$CComObject@VCXRFRayTube@@@ATL@@UAGKXZ 1000b710 f i XRFRayTube.obj
 0001:0000a710       ?AddRef@?$CComObject@VCVacuumPump@@@ATL@@UAGKXZ 1000b710 f i VacuumPump.obj
 0001:0000a710       ?AddRef@?$CComObject@VCHighVoltage@@@ATL@@UAGKXZ 1000b710 f i HighVoltage.obj
 0001:0000a730       ?CreateInstance@?$CComCreator@V?$CComAggObject@VCHighVoltage@@@ATL@@@ATL@@SGJPAXABU_GUID@@PAPAX@Z 1000b730 f i HighVoltage.obj
 0001:0000a850       ?CreateInstance@?$CComCreator@V?$CComObject@VCHighVoltage@@@ATL@@@ATL@@SGJPAXABU_GUID@@PAPAX@Z 1000b850 f i HighVoltage.obj
 0001:0000a980       ?GetIDsOfNames@?$IDispatchImpl@UIHighVoltage@@$1?IID_IHighVoltage@@3U_GUID@@B$1?LIBID_XRFNetLib@@3U3@B$00$0A@VCComTypeInfoHolder@ATL@@@ATL@@UAGJABU_GUID@@PAPA_WIKPAJ@Z 1000b980 f i HighVoltage.obj
 0001:0000a9a0       ?GetTypeInfo@?$IDispatchImpl@UIHighVoltage@@$1?IID_IHighVoltage@@3U_GUID@@B$1?LIBID_XRFNetLib@@3U3@B$00$0A@VCComTypeInfoHolder@ATL@@@ATL@@UAGJIKPAPAUITypeInfo@@@Z 1000b9a0 f i HighVoltage.obj
 0001:0000aa00       ?Invoke@?$IDispatchImpl@UIHighVoltage@@$1?IID_IHighVoltage@@3U_GUID@@B$1?LIBID_XRFNetLib@@3U3@B$00$0A@VCComTypeInfoHolder@ATL@@@ATL@@UAGJJABU_GUID@@KGPAUtagDISPPARAMS@@PAUtagVARIANT@@PAUtagEXCEPINFO@@PAI@Z 1000ba00 f i HighVoltage.obj
 0001:0000aa50       ?Name@CHighVoltage@@EAEPB_WXZ 1000ba50 f i HighVoltage.obj
 0001:0000aa70       ?QueryInterface@?$CComAggObject@VCHighVoltage@@@ATL@@UAGJABU_GUID@@PAPAX@Z 1000ba70 f i HighVoltage.obj
 0001:0000aae0       ?QueryInterface@?$CComObject@VCHighVoltage@@@ATL@@UAGJABU_GUID@@PAPAX@Z 1000bae0 f i HighVoltage.obj
 0001:0000ab00       ?UpdateRegistry@CMotorControl@@SGJH@Z 1000bb00 f i MotorControl.obj
 0001:0000ab20       ?CreateInstance@?$CComCreator2@V?$CComCreator@V?$CComObject@VCMotorControl@@@ATL@@@ATL@@V?$CComCreator@V?$CComAggObject@VCMotorControl@@@ATL@@@2@@ATL@@SGJPAXABU_GUID@@PAPAX@Z 1000bb20 f i MotorControl.obj
 0001:0000ab40       ??0?$CComContainedObject@VCMotorControl@@@ATL@@QAE@PAX@Z 1000bb40 f i MotorControl.obj
 0001:0000abc0       ??0?$CComObject@VCMotorControl@@@ATL@@QAE@PAX@Z 1000bbc0 f i MotorControl.obj
 0001:0000ac80       ??1?$CComAggObject@VCMotorControl@@@ATL@@UAE@XZ 1000bc80 f i MotorControl.obj
 0001:0000ad60       ??1CMotorControl@@QAE@XZ   1000bd60 f i MotorControl.obj
 0001:0000ad60       ??1?$CComContainedObject@VCMotorControl@@@ATL@@QAE@XZ 1000bd60 f i MotorControl.obj
 0001:0000adc0       ??1?$CComObject@VCMotorControl@@@ATL@@UAE@XZ 1000bdc0 f i MotorControl.obj
 0001:0000aea0       ??_G?$CComAggObject@VCMotorControl@@@ATL@@UAEPAXI@Z 1000bea0 f i MotorControl.obj
 0001:0000aea0       ??_E?$CComAggObject@VCMotorControl@@@ATL@@UAEPAXI@Z 1000bea0 f i MotorControl.obj
 0001:0000aed0       ??_E?$CComObject@VCMotorControl@@@ATL@@UAEPAXI@Z 1000bed0 f i MotorControl.obj
 0001:0000aed0       ??_G?$CComObject@VCMotorControl@@@ATL@@UAEPAXI@Z 1000bed0 f i MotorControl.obj
 0001:0000af00       ?CreateInstance@?$CComCreator@V?$CComAggObject@VCMotorControl@@@ATL@@@ATL@@SGJPAXABU_GUID@@PAPAX@Z 1000bf00 f i MotorControl.obj
 0001:0000b030       ?CreateInstance@?$CComCreator@V?$CComObject@VCMotorControl@@@ATL@@@ATL@@SGJPAXABU_GUID@@PAPAX@Z 1000c030 f i MotorControl.obj
 0001:0000b160       ?FinalConstruct@?$CComAggObject@VCMotorControl@@@ATL@@QAEJXZ 1000c160 f i MotorControl.obj
 0001:0000b1b0       ?FinalConstruct@CMotorControl@@QAEJXZ 1000c1b0 f   MotorControl.obj
 0001:0000b200       ?GetIDsOfNames@?$IDispatchImpl@UIMotorControl@@$1?IID_IMotorControl@@3U_GUID@@B$1?LIBID_XRFNetLib@@3U3@B$00$0A@VCComTypeInfoHolder@ATL@@@ATL@@UAGJABU_GUID@@PAPA_WIKPAJ@Z 1000c200 f i MotorControl.obj
 0001:0000b220       ?GetTypeInfo@?$IDispatchImpl@UIMotorControl@@$1?IID_IMotorControl@@3U_GUID@@B$1?LIBID_XRFNetLib@@3U3@B$00$0A@VCComTypeInfoHolder@ATL@@@ATL@@UAGJIKPAPAUITypeInfo@@@Z 1000c220 f i MotorControl.obj
 0001:0000b280       ?GetTypeInfoCount@?$IDispatchImpl@UIHighVoltage@@$1?IID_IHighVoltage@@3U_GUID@@B$1?LIBID_XRFNetLib@@3U3@B$00$0A@VCComTypeInfoHolder@ATL@@@ATL@@UAGJPAI@Z 1000c280 f i HighVoltage.obj
 0001:0000b280       ?GetTypeInfoCount@?$IDispatchImpl@UIHeightLaser@@$1?IID_IHeightLaser@@3U_GUID@@B$1?LIBID_XRFNetLib@@3U3@B$00$0A@VCComTypeInfoHolder@ATL@@@ATL@@UAGJPAI@Z 1000c280 f i HeightLaser.obj
 0001:0000b280       ?GetTypeInfoCount@?$IDispatchImpl@UIXRFRayTube@@$1?IID_IXRFRayTube@@3U_GUID@@B$1?LIBID_XRFNetLib@@3U3@B$00$0A@VCComTypeInfoHolder@ATL@@@ATL@@UAGJPAI@Z 1000c280 f i XRFRayTube.obj
 0001:0000b280       ?GetTypeInfoCount@?$IDispatchImpl@UIElectromagnet@@$1?IID_IElectromagnet@@3U_GUID@@B$1?LIBID_XRFNetLib@@3U3@B$00$0A@VCComTypeInfoHolder@ATL@@@ATL@@UAGJPAI@Z 1000c280 f i Electromagnet.obj
 0001:0000b280       ?GetTypeInfoCount@?$IDispatchImpl@UIDetector@@$1?IID_IDetector@@3U_GUID@@B$1?LIBID_XRFNetLib@@3U3@B$00$0A@VCComTypeInfoHolder@ATL@@@ATL@@UAGJPAI@Z 1000c280 f i Detector.obj
 0001:0000b280       ?GetTypeInfoCount@?$IDispatchImpl@UIVacuumPump@@$1?IID_IVacuumPump@@3U_GUID@@B$1?LIBID_XRFNetLib@@3U3@B$00$0A@VCComTypeInfoHolder@ATL@@@ATL@@UAGJPAI@Z 1000c280 f i VacuumPump.obj
 0001:0000b280       ?GetTypeInfoCount@?$IDispatchImpl@UIDetectData@@$1?IID_IDetectData@@3U_GUID@@B$1?LIBID_XRFNetLib@@3U3@B$00$0A@VCComTypeInfoHolder@ATL@@@ATL@@UAGJPAI@Z 1000c280 f i DetectData.obj
 0001:0000b280       ?GetTypeInfoCount@?$IDispatchImpl@UIXRFNetwork@@$1?IID_IXRFNetwork@@3U_GUID@@B$1?LIBID_XRFNetLib@@3U3@B$00$0A@VCComTypeInfoHolder@ATL@@@ATL@@UAGJPAI@Z 1000c280 f i XRFNetwork.obj
 0001:0000b280       ?GetTypeInfoCount@?$IDispatchImpl@UISurfaceSource@@$1?IID_ISurfaceSource@@3U_GUID@@B$1?LIBID_XRFNetLib@@3U3@B$00$0A@VCComTypeInfoHolder@ATL@@@ATL@@UAGJPAI@Z 1000c280 f i SurfaceSource.obj
 0001:0000b280       ?GetTypeInfoCount@?$IDispatchImpl@UIApparatus@@$1?IID_IApparatus@@3U_GUID@@B$1?LIBID_XRFNetLib@@3U3@B$00$0A@VCComTypeInfoHolder@ATL@@@ATL@@UAGJPAI@Z 1000c280 f i Apparatus.obj
 0001:0000b280       ?GetTypeInfoCount@?$IDispatchImpl@UIMotorControl@@$1?IID_IMotorControl@@3U_GUID@@B$1?LIBID_XRFNetLib@@3U3@B$00$0A@VCComTypeInfoHolder@ATL@@@ATL@@UAGJPAI@Z 1000c280 f i MotorControl.obj
 0001:0000b2a0       ?ID@CMotorControl@@EAEIXZ  1000c2a0 f i MotorControl.obj
 0001:0000b2b0       ?Invoke@?$IDispatchImpl@UIMotorControl@@$1?IID_IMotorControl@@3U_GUID@@B$1?LIBID_XRFNetLib@@3U3@B$00$0A@VCComTypeInfoHolder@ATL@@@ATL@@UAGJJABU_GUID@@KGPAUtagDISPPARAMS@@PAUtagVARIANT@@PAUtagEXCEPINFO@@PAI@Z 1000c2b0 f i MotorControl.obj
 0001:0000b300       ?Name@CMotorControl@@EAEPB_WXZ 1000c300 f i MotorControl.obj
 0001:0000b320       ?QueryInterface@?$CComAggObject@VCMotorControl@@@ATL@@UAGJABU_GUID@@PAPAX@Z 1000c320 f i MotorControl.obj
 0001:0000b390       ?QueryInterface@?$CComObject@VCMotorControl@@@ATL@@UAGJABU_GUID@@PAPAX@Z 1000c390 f i MotorControl.obj
 0001:0000b3b0       ?Release@?$CComAggObject@VCElectromagnet@@@ATL@@UAGKXZ 1000c3b0 f i Electromagnet.obj
 0001:0000b3b0       ?Release@?$CComAggObject@VCDetectData@@@ATL@@UAGKXZ 1000c3b0 f i DetectData.obj
 0001:0000b3b0       ?Release@?$CComAggObject@VCDetector@@@ATL@@UAGKXZ 1000c3b0 f i Detector.obj
 0001:0000b3b0       ?Release@?$CComAggObject@VCXRFNetwork@@@ATL@@UAGKXZ 1000c3b0 f i XRFNetwork.obj
 0001:0000b3b0       ?Release@?$CComAggObject@VCSurfaceSource@@@ATL@@UAGKXZ 1000c3b0 f i SurfaceSource.obj
 0001:0000b3b0       ?Release@?$CComAggObject@VCHighVoltage@@@ATL@@UAGKXZ 1000c3b0 f i HighVoltage.obj
 0001:0000b3b0       ?Release@?$CComAggObject@VCMotorControl@@@ATL@@UAGKXZ 1000c3b0 f i MotorControl.obj
 0001:0000b3b0       ?Release@?$CComAggObject@VCApparatus@@@ATL@@UAGKXZ 1000c3b0 f i Apparatus.obj
 0001:0000b3b0       ?Release@?$CComAggObject@VCXRFRayTube@@@ATL@@UAGKXZ 1000c3b0 f i XRFRayTube.obj
 0001:0000b3b0       ?Release@?$CComAggObject@VCHeightLaser@@@ATL@@UAGKXZ 1000c3b0 f i HeightLaser.obj
 0001:0000b3b0       ?Release@?$CComAggObject@VCVacuumPump@@@ATL@@UAGKXZ 1000c3b0 f i VacuumPump.obj
 0001:0000b430       ?UpdateRegistry@CSurfaceSource@@SGJH@Z 1000c430 f i SurfaceSource.obj
 0001:0000b450       ?CreateInstance@?$CComCreator2@V?$CComCreator@V?$CComObject@VCSurfaceSource@@@ATL@@@ATL@@V?$CComCreator@V?$CComAggObject@VCSurfaceSource@@@ATL@@@2@@ATL@@SGJPAXABU_GUID@@PAPAX@Z 1000c450 f i SurfaceSource.obj
 0001:0000b470       ??0?$CComAggObject@VCSurfaceSource@@@ATL@@QAE@PAX@Z 1000c470 f i SurfaceSource.obj
 0001:0000b520       ??0?$CComObject@VCSurfaceSource@@@ATL@@QAE@PAX@Z 1000c520 f i SurfaceSource.obj
 0001:0000b5c0       ??1?$CComAggObject@VCSurfaceSource@@@ATL@@UAE@XZ 1000c5c0 f i SurfaceSource.obj
 0001:0000b680       ??1?$CComObject@VCSurfaceSource@@@ATL@@UAE@XZ 1000c680 f i SurfaceSource.obj
 0001:0000b740       ??_G?$CComAggObject@VCSurfaceSource@@@ATL@@UAEPAXI@Z 1000c740 f i SurfaceSource.obj
 0001:0000b740       ??_E?$CComAggObject@VCSurfaceSource@@@ATL@@UAEPAXI@Z 1000c740 f i SurfaceSource.obj
 0001:0000b770       ??_G?$CComObject@VCSurfaceSource@@@ATL@@UAEPAXI@Z 1000c770 f i SurfaceSource.obj
 0001:0000b770       ??_E?$CComObject@VCSurfaceSource@@@ATL@@UAEPAXI@Z 1000c770 f i SurfaceSource.obj
 0001:0000b7a0       ?CreateInstance@?$CComCreator@V?$CComAggObject@VCSurfaceSource@@@ATL@@@ATL@@SGJPAXABU_GUID@@PAPAX@Z 1000c7a0 f i SurfaceSource.obj
 0001:0000b8c0       ?CreateInstance@?$CComCreator@V?$CComObject@VCSurfaceSource@@@ATL@@@ATL@@SGJPAXABU_GUID@@PAPAX@Z 1000c8c0 f i SurfaceSource.obj
 0001:0000b9f0       ?FinalConstruct@CSurfaceSource@@QAEJXZ 1000c9f0 f   SurfaceSource.obj
 0001:0000b9f0       ?FinalConstruct@CElectromagnet@@QAEJXZ 1000c9f0 f   Electromagnet.obj
 0001:0000b9f0       ?FinalConstruct@CHeightLaser@@QAEJXZ 1000c9f0 f   HeightLaser.obj
 0001:0000b9f0       ?FinalConstruct@CVacuumPump@@QAEJXZ 1000c9f0 f   VacuumPump.obj
 0001:0000b9f0       ?FinalConstruct@CApparatus@@QAEJXZ 1000c9f0 f   Apparatus.obj
 0001:0000b9f0       ?FinalConstruct@CHighVoltage@@QAEJXZ 1000c9f0 f   HighVoltage.obj
 0001:0000ba30       ?GetIDsOfNames@?$IDispatchImpl@UISurfaceSource@@$1?IID_ISurfaceSource@@3U_GUID@@B$1?LIBID_XRFNetLib@@3U3@B$00$0A@VCComTypeInfoHolder@ATL@@@ATL@@UAGJABU_GUID@@PAPA_WIKPAJ@Z 1000ca30 f i SurfaceSource.obj
 0001:0000ba50       ?GetTypeInfo@?$IDispatchImpl@UISurfaceSource@@$1?IID_ISurfaceSource@@3U_GUID@@B$1?LIBID_XRFNetLib@@3U3@B$00$0A@VCComTypeInfoHolder@ATL@@@ATL@@UAGJIKPAPAUITypeInfo@@@Z 1000ca50 f i SurfaceSource.obj
 0001:0000bab0       ?ID@CSurfaceSource@@EAEIXZ 1000cab0 f i SurfaceSource.obj
 0001:0000bac0       ?Invoke@?$IDispatchImpl@UISurfaceSource@@$1?IID_ISurfaceSource@@3U_GUID@@B$1?LIBID_XRFNetLib@@3U3@B$00$0A@VCComTypeInfoHolder@ATL@@@ATL@@UAGJJABU_GUID@@KGPAUtagDISPPARAMS@@PAUtagVARIANT@@PAUtagEXCEPINFO@@PAI@Z 1000cac0 f i SurfaceSource.obj
 0001:0000bb10       ?Name@CSurfaceSource@@EAEPB_WXZ 1000cb10 f i SurfaceSource.obj
 0001:0000bb30       ?QueryInterface@?$CComAggObject@VCSurfaceSource@@@ATL@@UAGJABU_GUID@@PAPAX@Z 1000cb30 f i SurfaceSource.obj
 0001:0000bba0       ?QueryInterface@?$CComObject@VCSurfaceSource@@@ATL@@UAGJABU_GUID@@PAPAX@Z 1000cba0 f i SurfaceSource.obj
 0001:0000bbc0       ?Release@?$CComObject@VCMotorControl@@@ATL@@UAGKXZ 1000cbc0 f i MotorControl.obj
 0001:0000bbc0       ?Release@?$CComObject@VCHeightLaser@@@ATL@@UAGKXZ 1000cbc0 f i HeightLaser.obj
 0001:0000bbc0       ?Release@?$CComObject@VCHighVoltage@@@ATL@@UAGKXZ 1000cbc0 f i HighVoltage.obj
 0001:0000bbc0       ?Release@?$CComObject@VCSurfaceSource@@@ATL@@UAGKXZ 1000cbc0 f i SurfaceSource.obj
 0001:0000bbc0       ?Release@?$CComObject@VCVacuumPump@@@ATL@@UAGKXZ 1000cbc0 f i VacuumPump.obj
 0001:0000bc40       ?UpdateRegistry@CVacuumPump@@SGJH@Z 1000cc40 f i VacuumPump.obj
 0001:0000bc60       ?CreateInstance@?$CComCreator2@V?$CComCreator@V?$CComObject@VCVacuumPump@@@ATL@@@ATL@@V?$CComCreator@V?$CComAggObject@VCVacuumPump@@@ATL@@@2@@ATL@@SGJPAXABU_GUID@@PAPAX@Z 1000cc60 f i VacuumPump.obj
 0001:0000bc80       ??0?$CComContainedObject@VCVacuumPump@@@ATL@@QAE@PAX@Z 1000cc80 f i VacuumPump.obj
 0001:0000bd00       ??0?$CComObject@VCVacuumPump@@@ATL@@QAE@PAX@Z 1000cd00 f i VacuumPump.obj
 0001:0000bdb0       ??1?$CComAggObject@VCVacuumPump@@@ATL@@UAE@XZ 1000cdb0 f i VacuumPump.obj
 0001:0000be70       ??1?$CComContainedObject@VCVacuumPump@@@ATL@@QAE@XZ 1000ce70 f i VacuumPump.obj
 0001:0000be70       ??1CVacuumPump@@QAE@XZ     1000ce70 f i VacuumPump.obj
 0001:0000bed0       ??1?$CComObject@VCVacuumPump@@@ATL@@UAE@XZ 1000ced0 f i VacuumPump.obj
 0001:0000bfa0       ??_E?$CComAggObject@VCVacuumPump@@@ATL@@UAEPAXI@Z 1000cfa0 f i VacuumPump.obj
 0001:0000bfa0       ??_G?$CComAggObject@VCVacuumPump@@@ATL@@UAEPAXI@Z 1000cfa0 f i VacuumPump.obj
 0001:0000bfd0       ??_E?$CComObject@VCVacuumPump@@@ATL@@UAEPAXI@Z 1000cfd0 f i VacuumPump.obj
 0001:0000bfd0       ??_G?$CComObject@VCVacuumPump@@@ATL@@UAEPAXI@Z 1000cfd0 f i VacuumPump.obj
 0001:0000c000       ?CreateInstance@?$CComCreator@V?$CComAggObject@VCVacuumPump@@@ATL@@@ATL@@SGJPAXABU_GUID@@PAPAX@Z 1000d000 f i VacuumPump.obj
 0001:0000c130       ?CreateInstance@?$CComCreator@V?$CComObject@VCVacuumPump@@@ATL@@@ATL@@SGJPAXABU_GUID@@PAPAX@Z 1000d130 f i VacuumPump.obj
 0001:0000c260       ?GetIDsOfNames@?$IDispatchImpl@UIVacuumPump@@$1?IID_IVacuumPump@@3U_GUID@@B$1?LIBID_XRFNetLib@@3U3@B$00$0A@VCComTypeInfoHolder@ATL@@@ATL@@UAGJABU_GUID@@PAPA_WIKPAJ@Z 1000d260 f i VacuumPump.obj
 0001:0000c280       ?GetLastError@CVacuumPump@@EAEPB_WXZ 1000d280 f i VacuumPump.obj
 0001:0000c290       ?GetTypeInfo@?$IDispatchImpl@UIVacuumPump@@$1?IID_IVacuumPump@@3U_GUID@@B$1?LIBID_XRFNetLib@@3U3@B$00$0A@VCComTypeInfoHolder@ATL@@@ATL@@UAGJIKPAPAUITypeInfo@@@Z 1000d290 f i VacuumPump.obj
 0001:0000c2f0       ?ID@CVacuumPump@@EAEIXZ    1000d2f0 f i VacuumPump.obj
 0001:0000c300       ?Invoke@?$IDispatchImpl@UIVacuumPump@@$1?IID_IVacuumPump@@3U_GUID@@B$1?LIBID_XRFNetLib@@3U3@B$00$0A@VCComTypeInfoHolder@ATL@@@ATL@@UAGJJABU_GUID@@KGPAUtagDISPPARAMS@@PAUtagVARIANT@@PAUtagEXCEPINFO@@PAI@Z 1000d300 f i VacuumPump.obj
 0001:0000c350       ?Name@CVacuumPump@@EAEPB_WXZ 1000d350 f i VacuumPump.obj
 0001:0000c370       ?QueryInterface@?$CComAggObject@VCVacuumPump@@@ATL@@UAGJABU_GUID@@PAPAX@Z 1000d370 f i VacuumPump.obj
 0001:0000c3e0       ?QueryInterface@?$CComObject@VCVacuumPump@@@ATL@@UAGJABU_GUID@@PAPAX@Z 1000d3e0 f i VacuumPump.obj
 0001:0000c400       ?AtlComModuleGetClassObject@ATL@@YGJPAU_ATL_COM_MODULE70@1@ABU_GUID@@1PAPAX@Z 1000d400 f i XRFNet.obj
 0001:0000c520       ?AtlComModuleRegisterServer@ATL@@YGJPAU_ATL_COM_MODULE70@1@HPBU_GUID@@@Z 1000d520 f i XRFNet.obj
 0001:0000c5d0       ?AtlComModuleUnregisterServer@ATL@@YGJPAU_ATL_COM_MODULE70@1@HPBU_GUID@@@Z 1000d5d0 f i XRFNet.obj
 0001:0000c720       ?AtlLoadTypeLib@ATL@@YGJPAUHINSTANCE__@@PB_WPAPA_WPAPAUITypeLib@@@Z 1000d720 f i XRFNet.obj
 0001:0000c900       ?AtlRegisterClassCategoriesHelper@ATL@@YGJABU_GUID@@PBU_ATL_CATMAP_ENTRY@1@H@Z 1000d900 f i XRFNet.obj
 0001:0000cc60       ?AtlRegisterTypeLib@ATL@@YGJPAUHINSTANCE__@@PB_W@Z 1000dc60 f i XRFNet.obj
 0001:0000cde0       ?AtlUnRegisterTypeLib@ATL@@YGJPAUHINSTANCE__@@PB_W@Z 1000dde0 f i XRFNet.obj
 0001:0000ced0       ?Close@CRegKey@ATL@@QAEJXZ 1000ded0 f i XRFNet.obj
 0001:0000cf00       ?DllRegisterServer@?$CAtlDllModuleT@VCXRFNetModule@@@ATL@@QAEJH@Z 1000df00 f i XRFNet.obj
 0001:0000cf90       ?DllUnregisterServer@?$CAtlDllModuleT@VCXRFNetModule@@@ATL@@QAEJH@Z 1000df90 f i XRFNet.obj
 0001:0000d020       ?wcscpy_s@Checked@ATL@@YAXPA_WIPB_W@Z 1000e020 f i XRFNet.obj
 0001:0000d040       _DllCanUnloadNow@0         1000e040 f   XRFNet.obj
 0001:0000d060       _DllGetClassObject@12      1000e060 f   XRFNet.obj
 0001:0000d090       _DllInstall@8              1000e090 f   XRFNet.obj
 0001:0000d130       _DllRegisterServer@0       1000e130 f   XRFNet.obj
 0001:0000d150       _DllUnregisterServer@0     1000e150 f   XRFNet.obj
 0001:0000d170       ?UpdateRegistry@CXRFNetwork@@SGJH@Z 1000e170 f i XRFNetwork.obj
 0001:0000d190       ?CreateInstance@?$CComCreator2@V?$CComCreator@V?$CComObject@VCXRFNetwork@@@ATL@@@ATL@@V?$CComCreator@V?$CComAggObject@VCXRFNetwork@@@ATL@@@2@@ATL@@SGJPAXABU_GUID@@PAPAX@Z 1000e190 f i XRFNetwork.obj
 0001:0000d1b0       ??$?8_WU?$char_traits@_W@std@@V?$allocator@_W@1@@std@@YA_NABV?$basic_string@_WU?$char_traits@_W@std@@V?$allocator@_W@2@@0@PB_W@Z 1000e1b0 f i XRFNetwork.obj
 0001:0000d1f0       ??0?$CComAggObject@VCXRFNetwork@@@ATL@@QAE@PAX@Z 1000e1f0 f i XRFNetwork.obj
 0001:0000d280       ??0CXRFNetwork@@QAE@XZ     1000e280 f   XRFNetwork.obj
 0001:0000d310       ??1?$CComAggObject@VCXRFNetwork@@@ATL@@UAE@XZ 1000e310 f i XRFNetwork.obj
 0001:0000d3c0       ??1?$CComContainedObject@VCXRFNetwork@@@ATL@@QAE@XZ 1000e3c0 f i XRFNetwork.obj
 0001:0000d3c0       ??1CXRFNetwork@@QAE@XZ     1000e3c0 f i XRFNetwork.obj
 0001:0000d420       ??1?$CComObject@VCXRFNetwork@@@ATL@@UAE@XZ 1000e420 f i XRFNetwork.obj
 0001:0000d4e0       ??_E?$CComAggObject@VCXRFNetwork@@@ATL@@UAEPAXI@Z 1000e4e0 f i XRFNetwork.obj
 0001:0000d4e0       ??_G?$CComAggObject@VCXRFNetwork@@@ATL@@UAEPAXI@Z 1000e4e0 f i XRFNetwork.obj
 0001:0000d510       ??_E?$CComObject@VCXRFNetwork@@@ATL@@UAEPAXI@Z 1000e510 f i XRFNetwork.obj
 0001:0000d510       ??_G?$CComObject@VCXRFNetwork@@@ATL@@UAEPAXI@Z 1000e510 f i XRFNetwork.obj
 0001:0000d540       ?AddRef@?$CComContainedObject@VCXRFNetwork@@@ATL@@UAGKXZ 1000e540 f i XRFNetwork.obj
 0001:0000d560       ?AddRef@?$CComObject@VCXRFNetwork@@@ATL@@UAGKXZ 1000e560 f i XRFNetwork.obj
 0001:0000d580       ?CheckVersion@CXRFNetwork@@UAGJPAHI@Z 1000e580 f   XRFNetwork.obj
 0001:0000d6f0       ?CloseSmallCamera@CXRFNetwork@@UAGJXZ 1000e6f0 f   XRFNetwork.obj
 0001:0000d760       ?Connect@CXRFNetwork@@UAGJPBEG@Z 1000e760 f   XRFNetwork.obj
 0001:0000d810       ?ConnectRemoteServer@CXRFNetwork@@UAGJPBEG@Z 1000e810 f   XRFNetwork.obj
 0001:0000d8c0       ?ConsolePrint@CXRFNetwork@@UAGJPBE@Z 1000e8c0 f   XRFNetwork.obj
 0001:0000d940       ?CreateInstance@?$CComCreator@V?$CComAggObject@VCXRFNetwork@@@ATL@@@ATL@@SGJPAXABU_GUID@@PAPAX@Z 1000e940 f i XRFNetwork.obj
 0001:0000da60       ?CreateInstance@?$CComCreator@V?$CComObject@VCXRFNetwork@@@ATL@@@ATL@@SGJPAXABU_GUID@@PAPAX@Z 1000ea60 f i XRFNetwork.obj
 0001:0000dbb0       ?Disconnect@CXRFNetwork@@UAGJXZ 1000ebb0 f   XRFNetwork.obj
 0001:0000dbd0       ?DisconnectRemoteServer@CXRFNetwork@@UAGJXZ 1000ebd0 f   XRFNetwork.obj
 0001:0000dbf0       ?FinalConstruct@CXRFNetwork@@QAEJXZ 1000ebf0 f   XRFNetwork.obj
 0001:0000dec0       ?FinalRelease@CXRFNetwork@@QAEXXZ 1000eec0 f   XRFNetwork.obj
 0001:0000e0a0       ?GainLargeCameraLight@CXRFNetwork@@UAGJXZ 1000f0a0 f   XRFNetwork.obj
 0001:0000e110       ?GainSmallCameraLight@CXRFNetwork@@UAGJXZ 1000f110 f   XRFNetwork.obj
 0001:0000e180       ?GetApparatus@CXRFNetwork@@UAGJPAPAUIApparatus@@@Z 1000f180 f   XRFNetwork.obj
 0001:0000e200       ?GetDetector@CXRFNetwork@@UAGJPAPAUIDetector@@@Z 1000f200 f   XRFNetwork.obj
 0001:0000e280       ?GetElectromagnet@CXRFNetwork@@UAGJPAPAUIElectromagnet@@@Z 1000f280 f   XRFNetwork.obj
 0001:0000e300       ?GetHeightLaser@CXRFNetwork@@UAGJPAPAUIHeightLaser@@@Z 1000f300 f   XRFNetwork.obj
 0001:0000e380       ?GetHighVotage@CXRFNetwork@@UAGJPAPAUIHighVoltage@@@Z 1000f380 f   XRFNetwork.obj
 0001:0000e400       ?GetIDsOfNames@?$IDispatchImpl@UIXRFNetwork@@$1?IID_IXRFNetwork@@3U_GUID@@B$1?LIBID_XRFNetLib@@3U3@B$00$0A@VCComTypeInfoHolder@ATL@@@ATL@@UAGJABU_GUID@@PAPA_WIKPAJ@Z 1000f400 f i XRFNetwork.obj
 0001:0000e420       ?GetLastError@CXRFNetwork@@EAEPB_WXZ 1000f420 f i XRFNetwork.obj
 0001:0000e430       ?GetMotor@CXRFNetwork@@UAGJPAPAUIMotorControl@@@Z 1000f430 f   XRFNetwork.obj
 0001:0000e4b0       ?GetRayTube@CXRFNetwork@@UAGJPAPAUIXRFRayTube@@@Z 1000f4b0 f   XRFNetwork.obj
 0001:0000e530       ?GetSurfaceSource@CXRFNetwork@@UAGJPAPAUISurfaceSource@@@Z 1000f530 f   XRFNetwork.obj
 0001:0000e5b0       ?GetTypeInfo@?$IDispatchImpl@UIXRFNetwork@@$1?IID_IXRFNetwork@@3U_GUID@@B$1?LIBID_XRFNetLib@@3U3@B$00$0A@VCComTypeInfoHolder@ATL@@@ATL@@UAGJIKPAPAUITypeInfo@@@Z 1000f5b0 f i XRFNetwork.obj
 0001:0000e610       ?GetVacuumPump@CXRFNetwork@@UAGJPAPAUIVacuumPump@@@Z 1000f610 f   XRFNetwork.obj
 0001:0000e690       ?ID@CXRFNetwork@@EAEIXZ    1000f690 f i XRFNetwork.obj
 0001:0000e6a0       ?Invoke@?$IDispatchImpl@UIXRFNetwork@@$1?IID_IXRFNetwork@@3U_GUID@@B$1?LIBID_XRFNetLib@@3U3@B$00$0A@VCComTypeInfoHolder@ATL@@@ATL@@UAGJJABU_GUID@@KGPAUtagDISPPARAMS@@PAUtagVARIANT@@PAUtagEXCEPINFO@@PAI@Z 1000f6a0 f i XRFNetwork.obj
 0001:0000e6f0       ?Name@CXRFNetwork@@EAEPB_WXZ 1000f6f0 f i XRFNetwork.obj
 0001:0000e710       ?OnConnected@CXRFNetwork@@EAEXXZ 1000f710 f   XRFNetwork.obj
 0001:0000e740       ?OnReceive@CXRFNetwork@@EAEXW4TransportID@NetLib@@PAVIUnpacking@3@@Z 1000f740 f   XRFNetwork.obj
 0001:0000e790       ?OnRemoteConnected@CXRFNetwork@@EAEXXZ 1000f790 f   XRFNetwork.obj
 0001:0000e7c0       ?OnRemoteServerShutdown@CXRFNetwork@@EAEXXZ 1000f7c0 f   XRFNetwork.obj
 0001:0000e7f0       ?OnRemoteShutdown@CXRFNetwork@@EAEXXZ 1000f7f0 f   XRFNetwork.obj
 0001:0000e820       ?OnShutdown@CXRFNetwork@@EAEXXZ 1000f820 f   XRFNetwork.obj
 0001:0000e850       ?OpenSmallCamera@CXRFNetwork@@UAGJXZ 1000f850 f   XRFNetwork.obj
 0001:0000e8c0       ?Procedure@CXRFNetwork@@EAEXPB_WIJ@Z 1000f8c0 f   XRFNetwork.obj
 0001:0000ea30       ?QueryInterface@?$CComAggObject@VCXRFNetwork@@@ATL@@UAGJABU_GUID@@PAPAX@Z 1000fa30 f i XRFNetwork.obj
 0001:0000eaa0       ?QueryInterface@?$CComContainedObject@VCXRFNetwork@@@ATL@@UAGJABU_GUID@@PAPAX@Z 1000faa0 f i XRFNetwork.obj
 0001:0000eac0       ?QueryInterface@?$CComObject@VCXRFNetwork@@@ATL@@UAGJABU_GUID@@PAPAX@Z 1000fac0 f i XRFNetwork.obj
 0001:0000eae0       ?ReduceLargeCameraLight@CXRFNetwork@@UAGJXZ 1000fae0 f   XRFNetwork.obj
 0001:0000eb50       ?ReduceSmallCameraLight@CXRFNetwork@@UAGJXZ 1000fb50 f   XRFNetwork.obj
 0001:0000ebc0       ?Release@?$CComContainedObject@VCXRFNetwork@@@ATL@@UAGKXZ 1000fbc0 f i XRFNetwork.obj
 0001:0000ebe0       ?Release@?$CComObject@VCXRFNetwork@@@ATL@@UAGKXZ 1000fbe0 f i XRFNetwork.obj
 0001:0000ec60       ?SetCallback@CXRFNetwork@@UAGJPAUINetworkCallBack@@@Z 1000fc60 f   XRFNetwork.obj
 0001:0000eca0       ?ShowConsole@CXRFNetwork@@UAGJH@Z 1000fca0 f   XRFNetwork.obj
 0001:0000ecd0       ?ShutdownRemoteServer@CXRFNetwork@@UAGJXZ 1000fcd0 f   XRFNetwork.obj
 0001:0000ecf0       ?StartupRemoteServer@CXRFNetwork@@UAGJPBEG@Z 1000fcf0 f   XRFNetwork.obj
 0001:0000eda0       ?append@?$basic_string@_WU?$char_traits@_W@std@@V?$allocator@_W@2@@std@@QAEAAV12@ABV12@II@Z 1000fda0 f i XRFNetwork.obj
 0001:0000ee60       ?append@?$basic_string@_WU?$char_traits@_W@std@@V?$allocator@_W@2@@std@@QAEAAV12@PB_WI@Z 1000fe60 f i XRFNetwork.obj
 0001:0000ef40       ?UpdateRegistry@CXRFRayTube@@SGJH@Z 1000ff40 f i XRFRayTube.obj
 0001:0000ef60       ?CreateInstance@?$CComCreator2@V?$CComCreator@V?$CComObject@VCXRFRayTube@@@ATL@@@ATL@@V?$CComCreator@V?$CComAggObject@VCXRFRayTube@@@ATL@@@2@@ATL@@SGJPAXABU_GUID@@PAPAX@Z 1000ff60 f i XRFRayTube.obj
 0001:0000ef80       ??0?$CComContainedObject@VCXRFRayTube@@@ATL@@QAE@PAX@Z 1000ff80 f i XRFRayTube.obj
 0001:0000f000       ??0?$CComObject@VCXRFRayTube@@@ATL@@QAE@PAX@Z 10010000 f i XRFRayTube.obj
 0001:0000f0c0       ??1?$CComAggObject@VCXRFRayTube@@@ATL@@UAE@XZ 100100c0 f i XRFRayTube.obj
 0001:0000f180       ??1?$CComObject@VCXRFRayTube@@@ATL@@UAE@XZ 10010180 f i XRFRayTube.obj
 0001:0000f250       ??1?$CComContainedObject@VCXRFRayTube@@@ATL@@QAE@XZ 10010250 f   XRFRayTube.obj
 0001:0000f250       ??1CXRFRayTube@@QAE@XZ     10010250 f   XRFRayTube.obj
 0001:0000f2b0       ??_E?$CComAggObject@VCXRFRayTube@@@ATL@@UAEPAXI@Z 100102b0 f i XRFRayTube.obj
 0001:0000f2b0       ??_G?$CComAggObject@VCXRFRayTube@@@ATL@@UAEPAXI@Z 100102b0 f i XRFRayTube.obj
 0001:0000f2e0       ??_E?$CComObject@VCXRFRayTube@@@ATL@@UAEPAXI@Z 100102e0 f i XRFRayTube.obj
 0001:0000f2e0       ??_G?$CComObject@VCXRFRayTube@@@ATL@@UAEPAXI@Z 100102e0 f i XRFRayTube.obj
 0001:0000f310       ?AllowUncover@CXRFRayTube@@UAGJXZ 10010310 f   XRFRayTube.obj
 0001:0000f380       ?CheckVersion@CXRFRayTube@@UAGJQAII@Z 10010380 f   XRFRayTube.obj
 0001:0000f4f0       ?ClearPushButtonInfo@CXRFRayTube@@UAGJXZ 100104f0 f   XRFRayTube.obj
 0001:0000f5b0       ?Close@CXRFRayTube@@UAGJXZ 100105b0 f   XRFRayTube.obj
 0001:0000f620       ?CloseElectromagnet@CXRFRayTube@@UAGJXZ 10010620 f   XRFRayTube.obj
 0001:0000f620       ?OpenVacuumPump@CXRFRayTube@@UAGJXZ 10010620 f   XRFRayTube.obj
 0001:0000f690       ?CloseHighVoltage@CXRFRayTube@@UAGJXZ 10010690 f   XRFRayTube.obj
 0001:0000f700       ?ClosePilotLamp@CXRFRayTube@@UAGJXZ 10010700 f   XRFRayTube.obj
 0001:0000f770       ?CloseVacuumPump@CXRFRayTube@@UAGJXZ 10010770 f   XRFRayTube.obj
 0001:0000f770       ?OpenElectromagnet@CXRFRayTube@@UAGJXZ 10010770 f   XRFRayTube.obj
 0001:0000f7e0       ?CreateInstance@?$CComCreator@V?$CComAggObject@VCXRFRayTube@@@ATL@@@ATL@@SGJPAXABU_GUID@@PAPAX@Z 100107e0 f i XRFRayTube.obj
 0001:0000f920       ?CreateInstance@?$CComCreator@V?$CComObject@VCXRFRayTube@@@ATL@@@ATL@@SGJPAXABU_GUID@@PAPAX@Z 10010920 f i XRFRayTube.obj
 0001:0000fa50       ?FinalConstruct@?$CComAggObject@VCXRFRayTube@@@ATL@@QAEJXZ 10010a50 f i XRFRayTube.obj
 0001:0000fa90       ?FinalConstruct@CXRFRayTube@@QAEJXZ 10010a90 f   XRFRayTube.obj
 0001:0000fad0       ?ForbidUncover@CXRFRayTube@@UAGJXZ 10010ad0 f   XRFRayTube.obj
 0001:0000fb40       ?GetChamberState@CXRFRayTube@@UAGJQAEII@Z 10010b40 f   XRFRayTube.obj
 0001:0000fcc0       ?GetConfig@CXRFRayTube@@UAGJPAG0PAHI@Z 10010cc0 f   XRFRayTube.obj
 0001:0000fe00       ?GetDoubleVacuum@CXRFRayTube@@UAGJIPAI0I@Z 10010e00 f   XRFRayTube.obj
 0001:0000ff50       ?GetIDsOfNames@?$IDispatchImpl@UIXRFRayTube@@$1?IID_IXRFRayTube@@3U_GUID@@B$1?LIBID_XRFNetLib@@3U3@B$00$0A@VCComTypeInfoHolder@ATL@@@ATL@@UAGJABU_GUID@@PAPA_WIKPAJ@Z 10010f50 f i XRFRayTube.obj
 0001:0000ff70       ?GetLastError@CXRFRayTube@@EAEPB_WXZ 10010f70 f i XRFRayTube.obj
 0001:0000ff80       ?GetMotorState@CXRFRayTube@@UAGJPAEI@Z 10010f80 f   XRFRayTube.obj
 0001:000100f0       ?GetPushButtonInfo@CXRFRayTube@@UAGJPAEI@Z 100110f0 f   XRFRayTube.obj
 0001:00010260       ?GetSwitchInfo@CXRFRayTube@@UAGJPAFI@Z 10011260 f   XRFRayTube.obj
 0001:000103d0       ?GetTypeInfo@?$IDispatchImpl@UIXRFRayTube@@$1?IID_IXRFRayTube@@3U_GUID@@B$1?LIBID_XRFNetLib@@3U3@B$00$0A@VCComTypeInfoHolder@ATL@@@ATL@@UAGJIKPAPAUITypeInfo@@@Z 100113d0 f i XRFRayTube.obj
 0001:00010430       ?GetVacuum@CXRFRayTube@@UAGJIPAII@Z 10011430 f   XRFRayTube.obj
 0001:00010560       ?ID@CXRFRayTube@@EAEIXZ    10011560 f i XRFRayTube.obj
 0001:00010570       ?Invoke@?$IDispatchImpl@UIXRFRayTube@@$1?IID_IXRFRayTube@@3U_GUID@@B$1?LIBID_XRFNetLib@@3U3@B$00$0A@VCComTypeInfoHolder@ATL@@@ATL@@UAGJJABU_GUID@@KGPAUtagDISPPARAMS@@PAUtagVARIANT@@PAUtagEXCEPINFO@@PAI@Z 10011570 f i XRFRayTube.obj
 0001:000105c0       ?MotorMove@CXRFRayTube@@UAGJEEGEEGG@Z 100115c0 f   XRFRayTube.obj
 0001:00010670       ?MoveZAutoMotor@CXRFRayTube@@UAGJE@Z 10011670 f   XRFRayTube.obj
 0001:000106e0       ?Name@CXRFRayTube@@EAEPB_WXZ 100116e0 f i XRFRayTube.obj
 0001:00010700       ?OnReceive@CXRFRayTube@@EAEXW4TransportID@NetLib@@PAVIUnpacking@3@@Z 10011700 f   XRFRayTube.obj
 0001:00010910       ?Open@CXRFRayTube@@UAGJXZ  10011910 f   XRFRayTube.obj
 0001:00010980       ?OpenHighVoltage@CXRFRayTube@@UAGJXZ 10011980 f   XRFRayTube.obj
 0001:000109f0       ?OpenLaserControl@CXRFRayTube@@UAGJE@Z 100119f0 f   XRFRayTube.obj
 0001:00010a60       ?OpenPilotLamp@CXRFRayTube@@UAGJXZ 10011a60 f   XRFRayTube.obj
 0001:00010ad0       ?QueryInterface@?$CComAggObject@VCXRFRayTube@@@ATL@@UAGJABU_GUID@@PAPAX@Z 10011ad0 f i XRFRayTube.obj
 0001:00010b40       ?QueryInterface@?$CComContainedObject@VCHighVoltage@@@ATL@@UAGJABU_GUID@@PAPAX@Z 10011b40 f i HighVoltage.obj
 0001:00010b40       ?QueryInterface@?$CComContainedObject@VCMotorControl@@@ATL@@UAGJABU_GUID@@PAPAX@Z 10011b40 f i MotorControl.obj
 0001:00010b40       ?QueryInterface@?$CComContainedObject@VCElectromagnet@@@ATL@@UAGJABU_GUID@@PAPAX@Z 10011b40 f i Electromagnet.obj
 0001:00010b40       ?QueryInterface@?$CComContainedObject@VCApparatus@@@ATL@@UAGJABU_GUID@@PAPAX@Z 10011b40 f i Apparatus.obj
 0001:00010b40       ?QueryInterface@?$CComContainedObject@VCHeightLaser@@@ATL@@UAGJABU_GUID@@PAPAX@Z 10011b40 f i HeightLaser.obj
 0001:00010b40       ?QueryInterface@?$CComContainedObject@VCSurfaceSource@@@ATL@@UAGJABU_GUID@@PAPAX@Z 10011b40 f i SurfaceSource.obj
 0001:00010b40       ?QueryInterface@?$CComContainedObject@VCVacuumPump@@@ATL@@UAGJABU_GUID@@PAPAX@Z 10011b40 f i VacuumPump.obj
 0001:00010b40       ?QueryInterface@?$CComContainedObject@VCXRFRayTube@@@ATL@@UAGJABU_GUID@@PAPAX@Z 10011b40 f i XRFRayTube.obj
 0001:00010b60       ?QueryInterface@?$CComObject@VCXRFRayTube@@@ATL@@UAGJABU_GUID@@PAPAX@Z 10011b60 f i XRFRayTube.obj
 0001:00010b80       ?Release@?$CComObject@VCXRFRayTube@@@ATL@@UAGKXZ 10011b80 f i XRFRayTube.obj
 0001:00010c00       ?SetConfig@CXRFRayTube@@UAGJGG@Z 10011c00 f   XRFRayTube.obj
 0001:00010ca0       ?SetLaserMode@CXRFRayTube@@UAGJE@Z 10011ca0 f   XRFRayTube.obj
 0001:00010d10       ?SetSurfaceLight@CXRFRayTube@@UAGJGGGG@Z 10011d10 f   XRFRayTube.obj
 0001:00010da0       ?bXRayTubeSel@CXRFRayTube@@UAGJI@Z 10011da0 f   XRFRayTube.obj
 0001:00010e07       ??0CAtlBaseModule@ATL@@QAE@XZ 10011e07 f   atls:atlbase.obj
 0001:00010e5a       ??0_ATL_BASE_MODULE70@ATL@@QAE@XZ 10011e5a f i atls:atlbase.obj
 0001:00010e7d       ??1CAtlBaseModule@ATL@@QAE@XZ 10011e7d f   atls:atlbase.obj
 0001:00010e93       ?Init@CComCriticalSection@ATL@@QAEJXZ 10011e93 f i atls:atlbase.obj
 0001:00010ebe       ?RemoveAll@?$CSimpleArray@PAUHINSTANCE__@@V?$CSimpleArrayEqualHelper@PAUHINSTANCE__@@@ATL@@@ATL@@QAEXXZ 10011ebe f i atls:atlbase.obj
 0001:00010edb       ??3@YAXPAX@Z               10011edb f   MSVCRT:delete_scalar.obj
 0001:00010ee0       ??_L@YGXPAXIIP6EX0@Z1@Z    10011ee0 f   MSVCRT:ehvecctr.obj
 0001:00010f49       ??_M@YGXPAXIIP6EX0@Z@Z     10011f49 f   MSVCRT:ehvecdtr.obj
 0001:00010fc3       ?__ArrayUnwind@@YGXPAXIIP6EX0@Z@Z 10011fc3 f   MSVCRT:ehvecdtr.obj
 0001:00011030       ??_V@YAXPAX@Z              10012030 f   MSVCRT:delete_array.obj
 0001:00011035       ___raise_securityfailure   10012035 f   MSVCRT:gs_report.obj
 0001:0001105d       ___report_gsfailure        1001205d f   MSVCRT:gs_report.obj
 0001:00011158       ___report_rangecheckfailure 10012158 f   MSVCRT:gs_report.obj
 0001:00011164       ___report_securityfailure  10012164 f   MSVCRT:gs_report.obj
 0001:000112f4       ??$__crt_fast_encode_pointer@P6GXPAU_RTL_CONDITION_VARIABLE@@@Z@@YAP6GXPAU_RTL_CONDITION_VARIABLE@@@ZQ6GX0@Z@Z 100122f4 f i MSVCRT:thread_safe_statics.obj
 0001:000112f4       ??$__crt_fast_encode_pointer@P6GHPAU_RTL_CONDITION_VARIABLE@@PAU_RTL_CRITICAL_SECTION@@K@Z@@YAP6GHPAU_RTL_CONDITION_VARIABLE@@PAU_RTL_CRITICAL_SECTION@@K@ZQ6GH01K@Z@Z 100122f4 f i MSVCRT:thread_safe_statics.obj
 0001:0001132d       __Init_thread_footer       1001232d f   MSVCRT:thread_safe_statics.obj
 0001:0001136c       __Init_thread_header       1001236c f   MSVCRT:thread_safe_statics.obj
 0001:000113b2       __Init_thread_lock         100123b2 f   MSVCRT:thread_safe_statics.obj
 0001:000113be       __Init_thread_notify       100123be f   MSVCRT:thread_safe_statics.obj
 0001:000113ff       __Init_thread_unlock       100123ff f   MSVCRT:thread_safe_statics.obj
 0001:0001140b       __Init_thread_wait         1001240b f   MSVCRT:thread_safe_statics.obj
 0001:00011470       ??2@YAPAXIABUnothrow_t@std@@@Z 10012470 f   MSVCRT:new_scalar_nothrow.obj
 0001:000114c2       ??_U@YAPAXIABUnothrow_t@std@@@Z 100124c2 f   MSVCRT:new_array_nothrow.obj
 0001:000114cb       ??3@YAXPAXABUnothrow_t@std@@@Z 100124cb f   MSVCRT:delete_scalar_nothrow.obj
 0001:000114cb       ??3@YAXPAXI@Z              100124cb f   MSVCRT:delete_scalar_size.obj
 0001:000114d9       ??_V@YAXPAXABUnothrow_t@std@@@Z 100124d9 f   MSVCRT:delete_array_nothrow.obj
 0001:000114d9       ??_V@YAXPAXI@Z             100124d9 f   MSVCRT:delete_array_size.obj
 0001:000114e7       @__security_check_cookie@4 100124e7 f   MSVCRT:_secchk_.obj
 0001:00011500       __chkstk                   10012500 f   MSVCRT:chkstk.obj
 0001:00011500       __alloca_probe             10012500 f   MSVCRT:chkstk.obj
 0001:0001152d       ??_Etype_info@@UAEPAXI@Z   1001252d f i MSVCRT:std_type_info_static.obj
 0001:0001152d       ??_Gtype_info@@UAEPAXI@Z   1001252d f i MSVCRT:std_type_info_static.obj
 0001:00011550       ??_U@YAPAXI@Z              10012550 f   MSVCRT:new_array.obj
 0001:00011559       ??2@YAPAXI@Z               10012559 f   MSVCRT:new_scalar.obj
 0001:000115d0       ___scrt_acquire_startup_lock 100125d0 f   MSVCRT:utility.obj
 0001:00011605       ___scrt_dllmain_after_initialize_c 10012605 f   MSVCRT:utility.obj
 0001:0001161d       ___scrt_dllmain_before_initialize_c 1001261d f   MSVCRT:utility.obj
 0001:0001162b       ___scrt_dllmain_crt_thread_attach 1001262b f   MSVCRT:utility.obj
 0001:0001164a       ___scrt_dllmain_crt_thread_detach 1001264a f   MSVCRT:utility.obj
 0001:00011657       ___scrt_dllmain_exception_filter 10012657 f   MSVCRT:utility.obj
 0001:0001168a       ___scrt_dllmain_uninitialize_c 1001268a f   MSVCRT:utility.obj
 0001:000116ad       ___scrt_dllmain_uninitialize_critical 100126ad f   MSVCRT:utility.obj
 0001:000116ba       ___scrt_initialize_crt     100126ba f   MSVCRT:utility.obj
 0001:000116f3       ___scrt_initialize_onexit_tables 100126f3 f   MSVCRT:utility.obj
 0001:0001178a       ___scrt_is_nonwritable_in_current_image 1001278a f   MSVCRT:utility.obj
 0001:00011817       ___scrt_release_startup_lock 10012817 f   MSVCRT:utility.obj
 0001:00011834       ___scrt_uninitialize_crt   10012834 f   MSVCRT:utility.obj
 0001:0001185c       __onexit                   1001285c f   MSVCRT:utility.obj
 0001:00011897       _atexit                    10012897 f   MSVCRT:utility.obj
 0001:000118b0       __ftoui3                   100128b0 f   MSVCRT:_ftol3_.obj
 0001:000118bf       __ftoul3                   100128bf f   MSVCRT:_ftol3_.obj
 0001:000118ce       __ftol3                    100128ce f   MSVCRT:_ftol3_.obj
 0001:000118db       __ftol3_NaN                100128db f   MSVCRT:_ftol3_.obj
 0001:000118f3       __ftol3_work               100128f3 f   MSVCRT:_ftol3_.obj
 0001:00011979       __ftol3_common             10012979 f   MSVCRT:_ftol3_.obj
 0001:00011a3b       __ftol3_arg_error          10012a3b f   MSVCRT:_ftol3_.obj
 0001:00011a4d       __ftol3_except             10012a4d f   MSVCRT:_ftol3_.obj
 0001:00011a91       __dtoui3                   10012a91 f   MSVCRT:_ftol3_.obj
 0001:00011aa0       __dtoul3                   10012aa0 f   MSVCRT:_ftol3_.obj
 0001:00011aaf       __dtol3                    10012aaf f   MSVCRT:_ftol3_.obj
 0001:00011abc       __dtol3_NaN                10012abc f   MSVCRT:_ftol3_.obj
 0001:00011ad9       __dtol3_work               10012ad9 f   MSVCRT:_ftol3_.obj
 0001:00011bc0       __ultod3                   10012bc0 f   MSVCRT:_ftol3_.obj
 0001:00011c00       __ltod3                    10012c00 f   MSVCRT:_ftol3_.obj
 0001:00011f3c       __DllMainCRTStartup@12     10012f3c f   MSVCRT:dll_dllmain.obj
 0001:00011f5f       @_guard_check_icall@4      10012f5f f i MSVCRT:checkcfg.obj
 0001:00011f70       __SEH_prolog4              10012f70 f   MSVCRT:_sehprolg4_.obj
 0001:00011fb6       __SEH_epilog4              10012fb6 f   MSVCRT:_sehprolg4_.obj
 0001:00011fcb       __except_handler4          10012fcb f   MSVCRT:_chandler4gs_.obj
 0001:00011fee       ___scrt_fastfail           10012fee f   MSVCRT:utility_desktop.obj
 0001:00012109       ??0bad_alloc@std@@QAE@ABV01@@Z 10013109 f i MSVCRT:throw_bad_alloc.obj
 0001:0001212a       ??0bad_alloc@std@@QAE@XZ   1001312a f i MSVCRT:throw_bad_alloc.obj
 0001:00012142       ??0bad_array_new_length@std@@QAE@ABV01@@Z 10013142 f i MSVCRT:throw_bad_alloc.obj
 0001:00012163       ??0bad_array_new_length@std@@QAE@XZ 10013163 f i MSVCRT:throw_bad_alloc.obj
 0001:0001217b       ??0exception@std@@QAE@ABV01@@Z 1001317b f i MSVCRT:throw_bad_alloc.obj
 0001:000121a7       ??1bad_alloc@std@@UAE@XZ   100131a7 f i MSVCRT:throw_bad_alloc.obj
 0001:000121a7       ??1bad_array_new_length@std@@UAE@XZ 100131a7 f i MSVCRT:throw_bad_alloc.obj
 0001:000121b8       ??_Ebad_alloc@std@@UAEPAXI@Z 100131b8 f i MSVCRT:throw_bad_alloc.obj
 0001:000121b8       ??_Gbad_array_new_length@std@@UAEPAXI@Z 100131b8 f i MSVCRT:throw_bad_alloc.obj
 0001:000121b8       ??_Gbad_alloc@std@@UAEPAXI@Z 100131b8 f i MSVCRT:throw_bad_alloc.obj
 0001:000121b8       ??_Gexception@std@@UAEPAXI@Z 100131b8 f i MSVCRT:throw_bad_alloc.obj
 0001:000121b8       ??_Ebad_array_new_length@std@@UAEPAXI@Z 100131b8 f i MSVCRT:throw_bad_alloc.obj
 0001:000121b8       ??_Eexception@std@@UAEPAXI@Z 100131b8 f i MSVCRT:throw_bad_alloc.obj
 0001:000121e5       ?__scrt_throw_std_bad_alloc@@YAXXZ 100131e5 f   MSVCRT:throw_bad_alloc.obj
 0001:00012202       ?__scrt_throw_std_bad_array_new_length@@YAXXZ 10013202 f   MSVCRT:throw_bad_alloc.obj
 0001:0001221f       ?what@exception@std@@UBEPBDXZ 1001321f f i MSVCRT:throw_bad_alloc.obj
 0001:0001222c       ___isa_available_init      1001322c f   MSVCRT:_cpu_disp_.obj
 0001:000123cd       ___scrt_is_ucrt_dll_in_use 100133cd f   MSVCRT:ucrt_detection.obj
 0001:000123d9       ___security_init_cookie    100133d9 f   MSVCRT:gs_support.obj
 0001:00012475       ?__scrt_initialize_type_info@@YAXXZ 10013475 f   MSVCRT:tncleanup.obj
 0001:00012481       ?__scrt_uninitialize_type_info@@YAXXZ 10013481 f   MSVCRT:tncleanup.obj
 0001:0001248d       ___local_stdio_scanf_options 1001348d f i MSVCRT:default_local_stdio_options.obj
 0001:00012493       ___scrt_initialize_default_local_stdio_options 10013493 f   MSVCRT:default_local_stdio_options.obj
 0001:000124b0       ___scrt_get_dyn_tls_init_callback 100134b0 f   MSVCRT:dyn_tls_init.obj
 0001:000124b6       __RTC_Initialize           100134b6 f   MSVCRT:_initsect_.obj
 0001:000124e1       __RTC_Terminate            100134e1 f   MSVCRT:_initsect_.obj
 0001:0001250c       _CStdStubBuffer_QueryInterface@12 1001350c f   rpcrt4:RPCRT4.dll
 0001:00012512       _CStdStubBuffer_AddRef@4   10013512 f   rpcrt4:RPCRT4.dll
 0001:00012518       _CStdStubBuffer_Connect@8  10013518 f   rpcrt4:RPCRT4.dll
 0001:0001251e       _CStdStubBuffer_Disconnect@4 1001351e f   rpcrt4:RPCRT4.dll
 0001:00012524       _CStdStubBuffer_Invoke@12  10013524 f   rpcrt4:RPCRT4.dll
 0001:0001252a       _CStdStubBuffer_IsIIDSupported@8 1001352a f   rpcrt4:RPCRT4.dll
 0001:00012530       _CStdStubBuffer_CountRefs@4 10013530 f   rpcrt4:RPCRT4.dll
 0001:00012536       _CStdStubBuffer_DebugServerQueryInterface@8 10013536 f   rpcrt4:RPCRT4.dll
 0001:0001253c       _CStdStubBuffer_DebugServerRelease@8 1001353c f   rpcrt4:RPCRT4.dll
 0001:00012542       _IUnknown_QueryInterface_Proxy@12 10013542 f   rpcrt4:RPCRT4.dll
 0001:00012548       _IUnknown_AddRef_Proxy@4   10013548 f   rpcrt4:RPCRT4.dll
 0001:0001254e       _IUnknown_Release_Proxy@4  1001354e f   rpcrt4:RPCRT4.dll
 0001:00012554       _NdrStubForwardingFunction@16 10013554 f   rpcrt4:RPCRT4.dll
 0001:0001255a       _NdrOleAllocate@4          1001355a f   rpcrt4:RPCRT4.dll
 0001:00012560       _NdrOleFree@4              10013560 f   rpcrt4:RPCRT4.dll
 0001:00012566       _NdrStubCall2@16           10013566 f   rpcrt4:RPCRT4.dll
 0001:0001256c       _NdrCStdStubBuffer_Release@8 1001356c f   rpcrt4:RPCRT4.dll
 0001:00012572       _NdrCStdStubBuffer2_Release@8 10013572 f   rpcrt4:RPCRT4.dll
 0001:00012578       __purecall                 10013578 f   vcruntime:VCRUNTIME140.dll
 0001:0001257e       ___std_terminate           1001357e f   vcruntime:VCRUNTIME140.dll
 0001:00012584       __CxxThrowException@8      10013584 f   vcruntime:VCRUNTIME140.dll
 0001:0001258a       ___CxxFrameHandler3        1001358a f   vcruntime:VCRUNTIME140.dll
 0001:00012590       _memcpy                    10013590 f   vcruntime:VCRUNTIME140.dll
 0001:00012596       _memset                    10013596 f   vcruntime:VCRUNTIME140.dll
 0001:0001259c       _memcmp                    1001359c f   vcruntime:VCRUNTIME140.dll
 0001:000125a2       ___vcrt_InitializeCriticalSectionEx 100135a2 f   vcruntime:VCRUNTIME140.dll
 0001:000125a8       ___telemetry_main_invoke_trigger 100135a8 f   vcruntime:VCRUNTIME140.dll
 0001:000125ae       ___telemetry_main_return_trigger 100135ae f   vcruntime:VCRUNTIME140.dll
 0001:000125b4       __except_handler4_common   100135b4 f   vcruntime:VCRUNTIME140.dll
 0001:000125ba       ___std_exception_copy      100135ba f   vcruntime:VCRUNTIME140.dll
 0001:000125c0       ___std_exception_destroy   100135c0 f   vcruntime:VCRUNTIME140.dll
 0001:000125c6       ___std_type_info_destroy_list 100135c6 f   vcruntime:VCRUNTIME140.dll
 0001:000125cc       _free                      100135cc f   ucrt:api-ms-win-crt-heap-l1-1-0.dll
 0001:000125d2       _malloc                    100135d2 f   ucrt:api-ms-win-crt-heap-l1-1-0.dll
 0001:000125d8       _terminate                 100135d8 f   ucrt:api-ms-win-crt-runtime-l1-1-0.dll
 0001:000125de       __callnewh                 100135de f   ucrt:api-ms-win-crt-heap-l1-1-0.dll
 0001:000125e4       __seh_filter_dll           100135e4 f   ucrt:api-ms-win-crt-runtime-l1-1-0.dll
 0001:000125ea       __initialize_narrow_environment 100135ea f   ucrt:api-ms-win-crt-runtime-l1-1-0.dll
 0001:000125f0       __initialize_onexit_table  100135f0 f   ucrt:api-ms-win-crt-runtime-l1-1-0.dll
 0001:000125f6       __register_onexit_function 100135f6 f   ucrt:api-ms-win-crt-runtime-l1-1-0.dll
 0001:000125fc       __execute_onexit_table     100135fc f   ucrt:api-ms-win-crt-runtime-l1-1-0.dll
 0001:00012602       __crt_atexit               10013602 f   ucrt:api-ms-win-crt-runtime-l1-1-0.dll
 0001:00012608       __cexit                    10013608 f   ucrt:api-ms-win-crt-runtime-l1-1-0.dll
 0001:0001260e       __except1                  1001360e f   ucrt:api-ms-win-crt-math-l1-1-0.dll
 0001:00012614       __initterm                 10013614 f   ucrt:api-ms-win-crt-runtime-l1-1-0.dll
 0001:0001261a       __initterm_e               1001361a f   ucrt:api-ms-win-crt-runtime-l1-1-0.dll
 0001:00012620       _IsProcessorFeaturePresent@4 10013620 f   kernel32:KERNEL32.dll
 0001:00012626       ___vcrt_thread_detach      10013626 f   MSVCRT:ucrt_stubs.obj
 0001:00012626       ___scrt_stub_for_acrt_thread_detach 10013626 f   MSVCRT:ucrt_stubs.obj
 0001:00012626       ___acrt_thread_detach      10013626 f   MSVCRT:ucrt_stubs.obj
 0001:00012626       ___acrt_uninitialize       10013626 f   MSVCRT:ucrt_stubs.obj
 0001:00012626       ___vcrt_uninitialize       10013626 f   MSVCRT:ucrt_stubs.obj
 0001:00012626       ___acrt_initialize         10013626 f   MSVCRT:ucrt_stubs.obj
 0001:00012626       ___acrt_thread_attach      10013626 f   MSVCRT:ucrt_stubs.obj
 0001:00012626       ___vcrt_thread_attach      10013626 f   MSVCRT:ucrt_stubs.obj
 0001:00012626       ___scrt_stub_for_acrt_uninitialize 10013626 f   MSVCRT:ucrt_stubs.obj
 0001:00012626       ___scrt_stub_for_acrt_initialize 10013626 f   MSVCRT:ucrt_stubs.obj
 0001:00012626       ___acrt_uninitialize_critical 10013626 f   MSVCRT:ucrt_stubs.obj
 0001:00012626       ___scrt_stub_for_acrt_thread_attach 10013626 f   MSVCRT:ucrt_stubs.obj
 0001:00012626       ___vcrt_uninitialize_critical 10013626 f   MSVCRT:ucrt_stubs.obj
 0001:00012626       ___vcrt_initialize         10013626 f   MSVCRT:ucrt_stubs.obj
 0001:00012626       ___scrt_stub_for_acrt_uninitialize_critical 10013626 f   MSVCRT:ucrt_stubs.obj
 0001:00012630       ?GetObjectDescription@?$CComCoClass@VCXRFNetwork@@$1?CLSID_XRFNetwork@@3U_GUID@@B@ATL@@SGPB_WXZ 10013630 f   XRFNetwork.obj
 0001:00012630       ?GetObjectDescription@?$CComCoClass@VCDetector@@$1?CLSID_Detector@@3U_GUID@@B@ATL@@SGPB_WXZ 10013630 f   Detector.obj
 0001:00012630       ?GetObjectDescription@?$CComCoClass@VCMotorControl@@$1?CLSID_MotorControl@@3U_GUID@@B@ATL@@SGPB_WXZ 10013630 f   MotorControl.obj
 0001:00012630       __is_c_termination_complete 10013630 f   MSVCRT:ucrt_stubs.obj
 0001:00012630       ___scrt_stub_for_is_c_termination_complete 10013630 f   MSVCRT:ucrt_stubs.obj
 0001:00012630       ?GetObjectDescription@?$CComCoClass@VCHighVoltage@@$1?CLSID_HighVoltage@@3U_GUID@@B@ATL@@SGPB_WXZ 10013630 f   HighVoltage.obj
 0001:00012630       ?GetObjectDescription@?$CComCoClass@VCHeightLaser@@$1?CLSID_HeightLaser@@3U_GUID@@B@ATL@@SGPB_WXZ 10013630 f   HeightLaser.obj
 0001:00012630       ?GetObjectDescription@?$CComCoClass@VCXRFRayTube@@$1?CLSID_XRFRay@@3U_GUID@@B@ATL@@SGPB_WXZ 10013630 f   XRFRayTube.obj
 0001:00012630       ?GetObjectDescription@?$CComCoClass@VCApparatus@@$1?CLSID_Apparatus@@3U_GUID@@B@ATL@@SGPB_WXZ 10013630 f   Apparatus.obj
 0001:00012630       ?GetObjectDescription@?$CComCoClass@VCElectromagnet@@$1?CLSID_Electromagnet@@3U_GUID@@B@ATL@@SGPB_WXZ 10013630 f   Electromagnet.obj
 0001:00012630       ?GetObjectDescription@?$CComCoClass@VCDetectData@@$1?CLSID_DetectData@@3U_GUID@@B@ATL@@SGPB_WXZ 10013630 f   DetectData.obj
 0001:00012630       ?GetCategoryMap@CComObjectRootBase@ATL@@SAPBU_ATL_CATMAP_ENTRY@2@XZ 10013630 f   Apparatus.obj
 0001:00012630       ?GetObjectDescription@?$CComCoClass@VCVacuumPump@@$1?CLSID_VacuumPump@@3U_GUID@@B@ATL@@SGPB_WXZ 10013630 f   VacuumPump.obj
 0001:00012630       ?GetObjectDescription@?$CComCoClass@VCSurfaceSource@@$1?CLSID_SurfaceSource@@3U_GUID@@B@ATL@@SGPB_WXZ 10013630 f   SurfaceSource.obj
 0002:00000000       __XRFNet_IID_Lookup@8      10015000 f   dlldatax.obj
 0003:00000000       __imp__RegQueryInfoKeyW@48 10016000     advapi32:ADVAPI32.dll
 0003:00000004       __imp__RegOpenKeyExW@20    10016004     advapi32:ADVAPI32.dll
 0003:00000008       __imp__RegEnumKeyExW@32    10016008     advapi32:ADVAPI32.dll
 0003:0000000c       __imp__RegDeleteValueW@8   1001600c     advapi32:ADVAPI32.dll
 0003:00000010       __imp__RegDeleteKeyW@8     10016010     advapi32:ADVAPI32.dll
 0003:00000014       __imp__RegCreateKeyExW@36  10016014     advapi32:ADVAPI32.dll
 0003:00000018       __imp__RegCloseKey@4       10016018     advapi32:ADVAPI32.dll
 0003:0000001c       __imp__RegSetValueExW@24   1001601c     advapi32:ADVAPI32.dll
 0003:00000020       \177ADVAPI32_NULL_THUNK_DATA 10016020     advapi32:ADVAPI32.dll
 0003:00000024       __imp__WaitForSingleObject@8 10016024     kernel32:KERNEL32.dll
 0003:00000028       __imp__CreateEventW@16     10016028     kernel32:KERNEL32.dll
 0003:0000002c       __imp__FreeLibrary@4       1001602c     kernel32:KERNEL32.dll
 0003:00000030       __imp__GetModuleFileNameW@12 10016030     kernel32:KERNEL32.dll
 0003:00000034       __imp__GetModuleHandleW@4  10016034     kernel32:KERNEL32.dll
 0003:00000038       __imp__GetProcAddress@8    10016038     kernel32:KERNEL32.dll
 0003:0000003c       __imp__LoadLibraryExW@12   1001603c     kernel32:KERNEL32.dll
 0003:00000040       __imp__LoadResource@8      10016040     kernel32:KERNEL32.dll
 0003:00000044       __imp__SizeofResource@8    10016044     kernel32:KERNEL32.dll
 0003:00000048       __imp__lstrcmpiW@8         10016048     kernel32:KERNEL32.dll
 0003:0000004c       __imp__FindResourceW@12    1001604c     kernel32:KERNEL32.dll
 0003:00000050       __imp__MultiByteToWideChar@24 10016050     kernel32:KERNEL32.dll
 0003:00000054       __imp__DecodePointer@4     10016054     kernel32:KERNEL32.dll
 0003:00000058       __imp__DuplicateHandle@28  10016058     kernel32:KERNEL32.dll
 0003:0000005c       __imp__SleepEx@8           1001605c     kernel32:KERNEL32.dll
 0003:00000060       __imp__QueueUserAPC@12     10016060     kernel32:KERNEL32.dll
 0003:00000064       __imp__SetEvent@4          10016064     kernel32:KERNEL32.dll
 0003:00000068       __imp__GetCurrentThread@0  10016068     kernel32:KERNEL32.dll
 0003:0000006c       __imp__GetCurrentThreadId@0 1001606c     kernel32:KERNEL32.dll
 0003:00000070       __imp__EncodePointer@4     10016070     kernel32:KERNEL32.dll
 0003:00000074       __imp__GetThreadLocale@0   10016074     kernel32:KERNEL32.dll
 0003:00000078       __imp__SetThreadLocale@4   10016078     kernel32:KERNEL32.dll
 0003:0000007c       __imp__LoadLibraryW@4      1001607c     kernel32:KERNEL32.dll
 0003:00000080       __imp__Sleep@4             10016080     kernel32:KERNEL32.dll
 0003:00000084       __imp__GetSystemTimeAsFileTime@4 10016084     kernel32:KERNEL32.dll
 0003:00000088       __imp__GetCurrentProcessId@0 10016088     kernel32:KERNEL32.dll
 0003:0000008c       __imp__QueryPerformanceCounter@4 1001608c     kernel32:KERNEL32.dll
 0003:00000090       __imp__WaitForSingleObjectEx@12 10016090     kernel32:KERNEL32.dll
 0003:00000094       __imp__ResetEvent@4        10016094     kernel32:KERNEL32.dll
 0003:00000098       __imp__IsProcessorFeaturePresent@4 10016098     kernel32:KERNEL32.dll
 0003:0000009c       __imp__TerminateProcess@8  1001609c     kernel32:KERNEL32.dll
 0003:000000a0       __imp__DeleteCriticalSection@4 100160a0     kernel32:KERNEL32.dll
 0003:000000a4       __imp__InitializeCriticalSectionEx@12 100160a4     kernel32:KERNEL32.dll
 0003:000000a8       __imp__LeaveCriticalSection@4 100160a8     kernel32:KERNEL32.dll
 0003:000000ac       __imp__EnterCriticalSection@4 100160ac     kernel32:KERNEL32.dll
 0003:000000b0       __imp__InitializeCriticalSection@4 100160b0     kernel32:KERNEL32.dll
 0003:000000b4       __imp__GetLastError@0      100160b4     kernel32:KERNEL32.dll
 0003:000000b8       __imp__RaiseException@16   100160b8     kernel32:KERNEL32.dll
 0003:000000bc       __imp__GetCurrentProcess@0 100160bc     kernel32:KERNEL32.dll
 0003:000000c0       __imp__CloseHandle@4       100160c0     kernel32:KERNEL32.dll
 0003:000000c4       __imp__SetUnhandledExceptionFilter@4 100160c4     kernel32:KERNEL32.dll
 0003:000000c8       __imp__UnhandledExceptionFilter@4 100160c8     kernel32:KERNEL32.dll
 0003:000000cc       __imp__OutputDebugStringW@4 100160cc     kernel32:KERNEL32.dll
 0003:000000d0       __imp__IsDebuggerPresent@0 100160d0     kernel32:KERNEL32.dll
 0003:000000d4       __imp__InitializeSListHead@4 100160d4     kernel32:KERNEL32.dll
 0003:000000d8       \177KERNEL32_NULL_THUNK_DATA 100160d8     kernel32:KERNEL32.dll
 0003:000000dc       __imp_?_Xbad_alloc@std@@YAXXZ 100160dc     msvcprt:MSVCP140.dll
 0003:000000e0       __imp_?_Xout_of_range@std@@YAXPBD@Z 100160e0     msvcprt:MSVCP140.dll
 0003:000000e4       __imp_?_Xlength_error@std@@YAXPBD@Z 100160e4     msvcprt:MSVCP140.dll
 0003:000000e8       \177MSVCP140_NULL_THUNK_DATA 100160e8     msvcprt:MSVCP140.dll
 0003:000000ec       __imp__SysAllocString@4    100160ec     oleaut32:OLEAUT32.dll
 0003:000000f0       __imp__LoadTypeLib@8       100160f0     oleaut32:OLEAUT32.dll
 0003:000000f4       __imp__UnRegisterTypeLib@20 100160f4     oleaut32:OLEAUT32.dll
 0003:000000f8       __imp__VarUI4FromStr@16    100160f8     oleaut32:OLEAUT32.dll
 0003:000000fc       __imp__SysStringLen@4      100160fc     oleaut32:OLEAUT32.dll
 0003:00000100       __imp__RegisterTypeLib@12  10016100     oleaut32:OLEAUT32.dll
 0003:00000104       __imp__LoadRegTypeLib@20   10016104     oleaut32:OLEAUT32.dll
 0003:00000108       __imp__SysFreeString@4     10016108     oleaut32:OLEAUT32.dll
 0003:0000010c       \177OLEAUT32_NULL_THUNK_DATA 1001610c     oleaut32:OLEAUT32.dll
 0003:00000110       __imp__CStdStubBuffer_CountRefs@4 10016110     rpcrt4:RPCRT4.dll
 0003:00000114       __imp__CStdStubBuffer_QueryInterface@12 10016114     rpcrt4:RPCRT4.dll
 0003:00000118       __imp__CStdStubBuffer_AddRef@4 10016118     rpcrt4:RPCRT4.dll
 0003:0000011c       __imp__CStdStubBuffer_Connect@8 1001611c     rpcrt4:RPCRT4.dll
 0003:00000120       __imp__CStdStubBuffer_Disconnect@4 10016120     rpcrt4:RPCRT4.dll
 0003:00000124       __imp__CStdStubBuffer_Invoke@12 10016124     rpcrt4:RPCRT4.dll
 0003:00000128       __imp__CStdStubBuffer_IsIIDSupported@8 10016128     rpcrt4:RPCRT4.dll
 0003:0000012c       __imp__NdrCStdStubBuffer2_Release@8 1001612c     rpcrt4:RPCRT4.dll
 0003:00000130       __imp__CStdStubBuffer_DebugServerQueryInterface@8 10016130     rpcrt4:RPCRT4.dll
 0003:00000134       __imp__CStdStubBuffer_DebugServerRelease@8 10016134     rpcrt4:RPCRT4.dll
 0003:00000138       __imp__IUnknown_QueryInterface_Proxy@12 10016138     rpcrt4:RPCRT4.dll
 0003:0000013c       __imp__IUnknown_AddRef_Proxy@4 1001613c     rpcrt4:RPCRT4.dll
 0003:00000140       __imp__IUnknown_Release_Proxy@4 10016140     rpcrt4:RPCRT4.dll
 0003:00000144       __imp__NdrStubForwardingFunction@16 10016144     rpcrt4:RPCRT4.dll
 0003:00000148       __imp__NdrOleAllocate@4    10016148     rpcrt4:RPCRT4.dll
 0003:0000014c       __imp__NdrOleFree@4        1001614c     rpcrt4:RPCRT4.dll
 0003:00000150       __imp__NdrStubCall2@16     10016150     rpcrt4:RPCRT4.dll
 0003:00000154       __imp__NdrCStdStubBuffer_Release@8 10016154     rpcrt4:RPCRT4.dll
 0003:00000158       __imp__NdrDllGetClassObject@24 10016158     rpcrt4:RPCRT4.dll
 0003:0000015c       __imp__NdrDllCanUnloadNow@4 1001615c     rpcrt4:RPCRT4.dll
 0003:00000160       __imp__NdrDllRegisterProxy@12 10016160     rpcrt4:RPCRT4.dll
 0003:00000164       __imp__NdrDllUnregisterProxy@12 10016164     rpcrt4:RPCRT4.dll
 0003:00000168       \177RPCRT4_NULL_THUNK_DATA 10016168     rpcrt4:RPCRT4.dll
 0003:0000016c       __imp__SetWindowLongW@12   1001616c     user32:USER32.dll
 0003:00000170       __imp__PostMessageW@16     10016170     user32:USER32.dll
 0003:00000174       __imp__DefWindowProcW@16   10016174     user32:USER32.dll
 0003:00000178       __imp__CreateWindowExW@48  10016178     user32:USER32.dll
 0003:0000017c       __imp__DestroyWindow@4     1001617c     user32:USER32.dll
 0003:00000180       __imp__CharNextW@4         10016180     user32:USER32.dll
 0003:00000184       \177USER32_NULL_THUNK_DATA 10016184     user32:USER32.dll
 0003:00000188       __imp__memset              10016188     vcruntime:VCRUNTIME140.dll
 0003:0000018c       __imp__memcmp              1001618c     vcruntime:VCRUNTIME140.dll
 0003:00000190       __imp__memmove             10016190     vcruntime:VCRUNTIME140.dll
 0003:00000194       __imp__memcpy              10016194     vcruntime:VCRUNTIME140.dll
 0003:00000198       __imp____CxxFrameHandler3  10016198     vcruntime:VCRUNTIME140.dll
 0003:0000019c       __imp____telemetry_main_return_trigger 1001619c     vcruntime:VCRUNTIME140.dll
 0003:000001a0       __imp___except_handler4_common 100161a0     vcruntime:VCRUNTIME140.dll
 0003:000001a4       __imp____std_exception_copy 100161a4     vcruntime:VCRUNTIME140.dll
 0003:000001a8       __imp____std_exception_destroy 100161a8     vcruntime:VCRUNTIME140.dll
 0003:000001ac       __imp____std_type_info_destroy_list 100161ac     vcruntime:VCRUNTIME140.dll
 0003:000001b0       __imp___CxxThrowException@8 100161b0     vcruntime:VCRUNTIME140.dll
 0003:000001b4       __imp__wcsstr              100161b4     vcruntime:VCRUNTIME140.dll
 0003:000001b8       __imp____std_terminate     100161b8     vcruntime:VCRUNTIME140.dll
 0003:000001bc       __imp___purecall           100161bc     vcruntime:VCRUNTIME140.dll
 0003:000001c0       __imp____vcrt_InitializeCriticalSectionEx 100161c0     vcruntime:VCRUNTIME140.dll
 0003:000001c4       __imp____telemetry_main_invoke_trigger 100161c4     vcruntime:VCRUNTIME140.dll
 0003:000001c8       \177VCRUNTIME140_NULL_THUNK_DATA 100161c8     vcruntime:VCRUNTIME140.dll
 0003:000001cc       __imp__inet_addr@4         100161cc     Ws2_32:WS2_32.dll
 0003:000001d0       \177WS2_32_NULL_THUNK_DATA 100161d0     Ws2_32:WS2_32.dll
 0003:000001d4       __imp__free                100161d4     ucrt:api-ms-win-crt-heap-l1-1-0.dll
 0003:000001d8       __imp__malloc              100161d8     ucrt:api-ms-win-crt-heap-l1-1-0.dll
 0003:000001dc       __imp___recalloc           100161dc     ucrt:api-ms-win-crt-heap-l1-1-0.dll
 0003:000001e0       __imp___callnewh           100161e0     ucrt:api-ms-win-crt-heap-l1-1-0.dll
 0003:000001e4       \177api-ms-win-crt-heap-l1-1-0_NULL_THUNK_DATA 100161e4     ucrt:api-ms-win-crt-heap-l1-1-0.dll
 0003:000001e8       __imp___except1            100161e8     ucrt:api-ms-win-crt-math-l1-1-0.dll
 0003:000001ec       \177api-ms-win-crt-math-l1-1-0_NULL_THUNK_DATA 100161ec     ucrt:api-ms-win-crt-math-l1-1-0.dll
 0003:000001f0       __imp___initialize_onexit_table 100161f0     ucrt:api-ms-win-crt-runtime-l1-1-0.dll
 0003:000001f4       __imp___register_onexit_function 100161f4     ucrt:api-ms-win-crt-runtime-l1-1-0.dll
 0003:000001f8       __imp___execute_onexit_table 100161f8     ucrt:api-ms-win-crt-runtime-l1-1-0.dll
 0003:000001fc       __imp__terminate           100161fc     ucrt:api-ms-win-crt-runtime-l1-1-0.dll
 0003:00000200       __imp___cexit              10016200     ucrt:api-ms-win-crt-runtime-l1-1-0.dll
 0003:00000204       __imp___initialize_narrow_environment 10016204     ucrt:api-ms-win-crt-runtime-l1-1-0.dll
 0003:00000208       __imp___initterm           10016208     ucrt:api-ms-win-crt-runtime-l1-1-0.dll
 0003:0000020c       __imp___initterm_e         1001620c     ucrt:api-ms-win-crt-runtime-l1-1-0.dll
 0003:00000210       __imp___invalid_parameter_noinfo 10016210     ucrt:api-ms-win-crt-runtime-l1-1-0.dll
 0003:00000214       __imp___invalid_parameter_noinfo_noreturn 10016214     ucrt:api-ms-win-crt-runtime-l1-1-0.dll
 0003:00000218       __imp___errno              10016218     ucrt:api-ms-win-crt-runtime-l1-1-0.dll
 0003:0000021c       __imp___seh_filter_dll     1001621c     ucrt:api-ms-win-crt-runtime-l1-1-0.dll
 0003:00000220       __imp___crt_atexit         10016220     ucrt:api-ms-win-crt-runtime-l1-1-0.dll
 0003:00000224       \177api-ms-win-crt-runtime-l1-1-0_NULL_THUNK_DATA 10016224     ucrt:api-ms-win-crt-runtime-l1-1-0.dll
 0003:00000228       __imp____stdio_common_vswprintf_s 10016228     ucrt:api-ms-win-crt-stdio-l1-1-0.dll
 0003:0000022c       \177api-ms-win-crt-stdio-l1-1-0_NULL_THUNK_DATA 1001622c     ucrt:api-ms-win-crt-stdio-l1-1-0.dll
 0003:00000230       __imp__wcscat_s            10016230     ucrt:api-ms-win-crt-string-l1-1-0.dll
 0003:00000234       __imp___wcsnicmp           10016234     ucrt:api-ms-win-crt-string-l1-1-0.dll
 0003:00000238       __imp__wcscpy_s            10016238     ucrt:api-ms-win-crt-string-l1-1-0.dll
 0003:0000023c       __imp__wcsncpy_s           1001623c     ucrt:api-ms-win-crt-string-l1-1-0.dll
 0003:00000240       \177api-ms-win-crt-string-l1-1-0_NULL_THUNK_DATA 10016240     ucrt:api-ms-win-crt-string-l1-1-0.dll
 0003:00000244       __imp__CoTaskMemAlloc@4    10016244     ole32:ole32.dll
 0003:00000248       __imp__CoTaskMemRealloc@8  10016248     ole32:ole32.dll
 0003:0000024c       __imp__CoTaskMemFree@4     1001624c     ole32:ole32.dll
 0003:00000250       __imp__CoCreateInstance@20 10016250     ole32:ole32.dll
 0003:00000254       __imp__StringFromGUID2@12  10016254     ole32:ole32.dll
 0003:00000258       \177ole32_NULL_THUNK_DATA  10016258     ole32:ole32.dll
 0003:0000025c       ___guard_check_icall_fptr  1001625c     MSVCRT:guard_support.obj
 0003:00000260       ___xc_a                    10016260     MSVCRT:initializers.obj
 0003:000002bc       ___xc_z                    100162bc     MSVCRT:initializers.obj
 0003:000002c0       ___xi_a                    100162c0     MSVCRT:initializers.obj
 0003:000002c8       ___xi_z                    100162c8     MSVCRT:initializers.obj
 0003:000002cc       ___xl_a                    100162cc     MSVCRT:tlssup.obj
 0003:000002d0       ___xl_z                    100162d0     MSVCRT:tlssup.obj
 0003:000002d4       ___xp_a                    100162d4     MSVCRT:initializers.obj
 0003:000002d8       ___xp_z                    100162d8     MSVCRT:initializers.obj
 0003:000002dc       ___xt_a                    100162dc     MSVCRT:initializers.obj
 0003:000002e0       ___xt_z                    100162e0     MSVCRT:initializers.obj
 0003:000002f0       ??_C@_13HADIAKP@?$AAS?$AA?$AA@ 100162f0     Apparatus.obj
 0003:000002f4       ??_C@_13LHMFKAAD@?$AAM?$AA?$AA@ 100162f4     Apparatus.obj
 0003:000002f8       ??_C@_13MKMNOPIJ@?$AAD?$AA?$AA@ 100162f8     Apparatus.obj
 0003:000002fc       ??_C@_13OPKGLAFF@?$AAB?$AA?$AA@ 100162fc     Apparatus.obj
 0003:00000300       ??_C@_17LLMMEOJD@?$AAV?$AAa?$AAl?$AA?$AA@ 10016300     Apparatus.obj
 0003:00000308       ??_C@_1BI@JFAIJMHL@?$AAF?$AAo?$AAr?$AAc?$AAe?$AAR?$AAe?$AAm?$AAo?$AAv?$AAe?$AA?$AA@ 10016308     Apparatus.obj
 0003:00000320       ??_C@_1BC@GCKHIPE@?$AAN?$AAo?$AAR?$AAe?$AAm?$AAo?$AAv?$AAe?$AA?$AA@ 10016320     Apparatus.obj
 0003:00000334       ??_C@_1O@JDLOHAN@?$AAD?$AAe?$AAl?$AAe?$AAt?$AAe?$AA?$AA@ 10016334     Apparatus.obj
 0003:00000364       __GUID_9022b9ea_d842_43c3_af0c_d83bb61098da 10016364     Apparatus.obj
 0003:00000374       __GUID_00000000_0000_0000_c000_000000000046 10016374     Apparatus.obj
 0003:00000384       __GUID_00020400_0000_0000_c000_000000000046 10016384     Apparatus.obj
 0003:00000394       ??_C@_1BK@BIGILECK@?$AAA?$AAd?$AAv?$AAa?$AAp?$AAi?$AA3?$AA2?$AA?4?$AAd?$AAl?$AAl?$AA?$AA@ 10016394     Apparatus.obj
 0003:000003b0       ??_C@_0BG@EKFFMJIO@RegOpenKeyTransactedW?$AA@ 100163b0     Apparatus.obj
 0003:000003c8       ??_C@_0BI@MNCFCPFK@RegCreateKeyTransactedW?$AA@ 100163c8     Apparatus.obj
 0003:000003e0       ??_C@_0BI@HAKLOOGP@RegDeleteKeyTransactedW?$AA@ 100163e0     Apparatus.obj
 0003:000003f8       ??_C@_0BA@LILAPHGE@RegDeleteKeyExW?$AA@ 100163f8     Apparatus.obj
 0003:00000408       ??_C@_1M@KANJNLFF@?$AAC?$AAL?$AAS?$AAI?$AAD?$AA?$AA@ 10016408     Apparatus.obj
 0003:00000414       ??_C@_1M@EJNEECMJ@?$AAA?$AAp?$AAp?$AAI?$AAD?$AA?$AA@ 10016414     Apparatus.obj
 0003:00000420       ?rgszNeverDelete@CRegParser@ATL@@1QBQB_WB 10016420     Apparatus.obj
 0003:00000454       ??_7CRegObject@ATL@@6B@    10016454     Apparatus.obj
 0003:0000046c       ??_C@_1CK@OEKPKBNA@?$AAC?$AAo?$AAm?$AAp?$AAo?$AAn?$AAe?$AAn?$AAt?$AA?5?$AAC?$AAa?$AAt?$AAe?$AAg?$AAo?$AAr?$AAi?$AAe?$AAs?$AA?$AA@ 1001646c     Apparatus.obj
 0003:00000498       ??_C@_1BC@NKMMNMGL@?$AAF?$AAi?$AAl?$AAe?$AAT?$AAy?$AAp?$AAe?$AA?$AA@ 10016498     Apparatus.obj
 0003:000004ac       ??_C@_1BE@EKPAFMCP@?$AAI?$AAn?$AAt?$AAe?$AAr?$AAf?$AAa?$AAc?$AAe?$AA?$AA@ 100164ac     Apparatus.obj
 0003:000004c0       ??_C@_1BC@MAICEHGI@?$AAH?$AAa?$AAr?$AAd?$AAw?$AAa?$AAr?$AAe?$AA?$AA@ 100164c0     Apparatus.obj
 0003:000004d4       ??_C@_19HLLLM@?$AAM?$AAi?$AAm?$AAe?$AA?$AA@ 100164d4     Apparatus.obj
 0003:000004e0       ??_C@_17OMAOINJK@?$AAS?$AAA?$AAM?$AA?$AA@ 100164e0     Apparatus.obj
 0003:000004e8       ??_C@_1BC@IBECJAAI@?$AAS?$AAE?$AAC?$AAU?$AAR?$AAI?$AAT?$AAY?$AA?$AA@ 100164e8     Apparatus.obj
 0003:000004fc       ??_C@_1O@GBFINDKL@?$AAS?$AAY?$AAS?$AAT?$AAE?$AAM?$AA?$AA@ 100164fc     Apparatus.obj
 0003:0000050c       ??_C@_1BC@EAHCMADO@?$AAS?$AAo?$AAf?$AAt?$AAw?$AAa?$AAr?$AAe?$AA?$AA@ 1001650c     Apparatus.obj
 0003:00000520       ??_C@_1BA@JIHHIEDE@?$AAT?$AAy?$AAp?$AAe?$AAL?$AAi?$AAb?$AA?$AA@ 10016520     Apparatus.obj
 0003:00000530       ?map@?1??HKeyFromString@CRegParser@ATL@@KAPAUHKEY__@@PA_W@Z@4QBUkeymap@?1??123@KAPAU4@0@Z@B 10016530     Apparatus.obj
 0003:000005a0       ??_C@_19NCHLBIN@?$AAH?$AAK?$AAC?$AAR?$AA?$AA@ 100165a0     Apparatus.obj
 0003:000005ac       ??_C@_19JAPAIJDE@?$AAH?$AAK?$AAC?$AAU?$AA?$AA@ 100165ac     Apparatus.obj
 0003:000005b8       ??_C@_19PEALEEJB@?$AAH?$AAK?$AAL?$AAM?$AA?$AA@ 100165b8     Apparatus.obj
 0003:000005c4       ??_C@_17PJOJPMPB@?$AAH?$AAK?$AAU?$AA?$AA@ 100165c4     Apparatus.obj
 0003:000005cc       ??_C@_19PNBHMJPL@?$AAH?$AAK?$AAP?$AAD?$AA?$AA@ 100165cc     Apparatus.obj
 0003:000005d8       ??_C@_19GFFAIJHG@?$AAH?$AAK?$AAD?$AAD?$AA?$AA@ 100165d8     Apparatus.obj
 0003:000005e4       ??_C@_19OFICIBHH@?$AAH?$AAK?$AAC?$AAC?$AA?$AA@ 100165e4     Apparatus.obj
 0003:000005f0       ??_C@_1CE@PACHPJFI@?$AAH?$AAK?$AAE?$AAY?$AA_?$AAC?$AAL?$AAA?$AAS?$AAS?$AAE?$AAS?$AA_?$AAR?$AAO?$AAO?$AAT?$AA?$AA@ 100165f0     Apparatus.obj
 0003:00000614       ??_C@_1CE@HLHNCBPM@?$AAH?$AAK?$AAE?$AAY?$AA_?$AAC?$AAU?$AAR?$AAR?$AAE?$AAN?$AAT?$AA_?$AAU?$AAS?$AAE?$AAR?$AA?$AA@ 10016614     Apparatus.obj
 0003:00000638       ??_C@_1CG@GFBEANJL@?$AAH?$AAK?$AAE?$AAY?$AA_?$AAL?$AAO?$AAC?$AAA?$AAL?$AA_?$AAM?$AAA?$AAC?$AAH?$AAI?$AAN?$AAE?$AA?$AA@ 10016638     Apparatus.obj
 0003:00000660       ??_C@_1BG@BGODANIO@?$AAH?$AAK?$AAE?$AAY?$AA_?$AAU?$AAS?$AAE?$AAR?$AAS?$AA?$AA@ 10016660     Apparatus.obj
 0003:00000678       ??_C@_1CM@KHNNAOIC@?$AAH?$AAK?$AAE?$AAY?$AA_?$AAP?$AAE?$AAR?$AAF?$AAO?$AAR?$AAM?$AAA?$AAN?$AAC?$AAE?$AA_?$AAD?$AAA?$AAT?$AAA?$AA?$AA@ 10016678     Apparatus.obj
 0003:000006a4       ??_C@_1BM@HAGMMHIA@?$AAH?$AAK?$AAE?$AAY?$AA_?$AAD?$AAY?$AAN?$AA_?$AAD?$AAA?$AAT?$AAA?$AA?$AA@ 100166a4     Apparatus.obj
 0003:000006c0       ??_C@_1CI@BBJOACGG@?$AAH?$AAK?$AAE?$AAY?$AA_?$AAC?$AAU?$AAR?$AAR?$AAE?$AAN?$AAT?$AA_?$AAC?$AAO?$AAN?$AAF?$AAI?$AAG?$AA?$AA@ 100166c0     Apparatus.obj
 0003:000006e8       ??_C@_1EA@NHKLICFA@?$AAH?$AAK?$AAC?$AAU?$AA?$AN?$AA?6?$AA?$HL?$AA?7?$AAS?$AAo?$AAf?$AAt?$AAw?$AAa?$AAr?$AAe?$AA?$AN?$AA?6?$AA?7?$AA?$HL?$AA?$AN?$AA?6?$AA?7?$AA?7?$AAC?$AAl?$AAa?$AAs?$AAs?$AAe?$AAs?$AA?$AA@ 100166e8     Apparatus.obj
 0003:00000728       ??_C@_1BE@LJOLIMEM@?$AA?$AN?$AA?6?$AA?7?$AA?$HN?$AA?$AN?$AA?6?$AA?$HN?$AA?$AN?$AA?6?$AA?$AA@ 10016728     Apparatus.obj
 0003:0000073c       ??_C@_1O@MNLDABAF@?$AAM?$AAo?$AAd?$AAu?$AAl?$AAe?$AA?$AA@ 1001673c     Apparatus.obj
 0003:0000074c       ??_C@_1BG@JBACFMF@?$AAM?$AAo?$AAd?$AAu?$AAl?$AAe?$AA_?$AAR?$AAa?$AAw?$AA?$AA@ 1001674c     Apparatus.obj
 0003:00000764       ??_C@_1BC@KAILKFFG@?$AAR?$AAE?$AAG?$AAI?$AAS?$AAT?$AAR?$AAY?$AA?$AA@ 10016764     Apparatus.obj
 0003:0000077c       ??_7CComClassFactory@ATL@@6B@ 1001677c     Apparatus.obj
 0003:00000794       ?_entries@?1??_GetEntries@CComClassFactory@ATL@@SGPBU_ATL_INTMAP_ENTRY@3@XZ@4QBU43@B 10016794     Apparatus.obj
 0003:000007ac       __GUID_00000001_0000_0000_c000_000000000046 100167ac     Apparatus.obj
 0003:000007c0       ??_7IEndPoint@NetLib@@6B@  100167c0     Apparatus.obj
 0003:000007d8       __GUID_00020412_0000_0000_c000_000000000046 100167d8     Apparatus.obj
 0003:000007e8       __GUID_00020401_0000_0000_c000_000000000046 100167e8     Apparatus.obj
 0003:000007f8       ?_entries@?1??_GetEntries@CApparatus@@SGPBU_ATL_INTMAP_ENTRY@ATL@@XZ@4QBU34@B 100167f8     Apparatus.obj
 0003:0000081c       __GUID_e5ba37aa_e10a_406d_b55e_1efb81695da4 1001681c     Apparatus.obj
 0003:00000830       ??_7?$CComObjectCached@VCComClassFactory@ATL@@@ATL@@6B@ 10016830     Apparatus.obj
 0003:0000084c       ??_7?$CComContainedObject@VCApparatus@@@ATL@@6B?$IDispatchImpl@UIApparatus@@$1?IID_IApparatus@@3U_GUID@@B$1?LIBID_XRFNetLib@@3U3@B$00$0A@VCComTypeInfoHolder@ATL@@@1@@ 1001684c     Apparatus.obj
 0003:00000874       ??_7?$CComContainedObject@VCApparatus@@@ATL@@6BIEndPoint@NetLib@@@ 10016874     Apparatus.obj
 0003:00000890       ??_7?$CComAggObject@VCApparatus@@@ATL@@6B@ 10016890     Apparatus.obj
 0003:000008a4       ??_7?$CComObject@VCApparatus@@@ATL@@6B?$IDispatchImpl@UIApparatus@@$1?IID_IApparatus@@3U_GUID@@B$1?LIBID_XRFNetLib@@3U3@B$00$0A@VCComTypeInfoHolder@ATL@@@1@@ 100168a4     Apparatus.obj
 0003:000008d0       ??_7?$CComObject@VCApparatus@@@ATL@@6BIEndPoint@NetLib@@@ 100168d0     Apparatus.obj
 0003:00000908       __GUID_e240f897_46b0_4277_a90f_55c9c89ec5c6 10016908     DetectData.obj
 0003:00000918       ?_entries@?1??_GetEntries@CDetectData@@SGPBU_ATL_INTMAP_ENTRY@ATL@@XZ@4QBU34@B 10016918     DetectData.obj
 0003:0000093c       __GUID_6eac33ba_baa0_4f4d_96f6_f41c822b5db7 1001693c     DetectData.obj
 0003:00000950       ??_7?$CComContainedObject@VCDetectData@@@ATL@@6B@ 10016950     DetectData.obj
 0003:0000097c       ??_7?$CComAggObject@VCDetectData@@@ATL@@6B@ 1001697c     DetectData.obj
 0003:00000990       ??_7?$CComObject@VCDetectData@@@ATL@@6B@ 10016990     DetectData.obj
 0003:000009dc       __GUID_99171b6c_4ec3_453c_9a61_5a746244a6fe 100169dc     Detector.obj
 0003:000009f0       ??_7IEventListener@@6B@    100169f0     Detector.obj
 0003:000009f4       ?_entries@?1??_GetEntries@CDetector@@SGPBU_ATL_INTMAP_ENTRY@ATL@@XZ@4QBU34@B 100169f4     Detector.obj
 0003:00000a18       __GUID_e7a21723_40cb_4c61_86ee_867388717f2c 10016a18     Detector.obj
 0003:00000a28       ??_C@_1BC@CLAHLLPL@?$AA?$CF?$AAu?$AA?5?$AA?$CF?$AAu?$AA?5?$AA?$CF?$AAu?$AA?$AA@ 10016a28     Detector.obj
 0003:00000a40       ??_7?$CComContainedObject@VCDetector@@@ATL@@6B?$IDispatchImpl@UIDetector@@$1?IID_IDetector@@3U_GUID@@B$1?LIBID_XRFNetLib@@3U3@B$00$0A@VCComTypeInfoHolder@ATL@@@1@@ 10016a40     Detector.obj
 0003:00000a80       ??_7?$CComContainedObject@VCDetector@@@ATL@@6BIEndPoint@NetLib@@@ 10016a80     Detector.obj
 0003:00000a9c       ??_7?$CComContainedObject@VCDetector@@@ATL@@6BIEventListener@@@ 10016a9c     Detector.obj
 0003:00000aa4       ??_7?$CComAggObject@VCDetector@@@ATL@@6B@ 10016aa4     Detector.obj
 0003:00000ab8       ??_7?$CComObject@VCDetector@@@ATL@@6B?$IDispatchImpl@UIDetector@@$1?IID_IDetector@@3U_GUID@@B$1?LIBID_XRFNetLib@@3U3@B$00$0A@VCComTypeInfoHolder@ATL@@@1@@ 10016ab8     Detector.obj
 0003:00000afc       ??_7?$CComObject@VCDetector@@@ATL@@6BIEndPoint@NetLib@@@ 10016afc     Detector.obj
 0003:00000b18       ??_7?$CComObject@VCDetector@@@ATL@@6BIEventListener@@@ 10016b18     Detector.obj
 0003:00000b20       __real@0000000000000000    10016b20     Detector.obj
 0003:00000b28       __real@40d0000000000000    10016b28     Detector.obj
 0003:00000b30       _XRFNet_ProxyFileInfo      10016b30     dlldatax.obj
 0003:00001b2c       __IDetectorCallBackStubVtbl 10017b2c     dlldatax.obj
 0003:00001bb8       __INetworkCallBackStubVtbl 10017bb8     dlldatax.obj
 0003:00001cc4       __XRFNet_ProxyVtblList     10017cc4     dlldatax.obj
 0003:00001cfc       __XRFNet_StubVtblList      10017cfc     dlldatax.obj
 0003:00001d34       __XRFNet_InterfaceNamesList 10017d34     dlldatax.obj
 0003:00001d6c       __XRFNet_BaseIIDList       10017d6c     dlldatax.obj
 0003:00001da4       ??_C@_0M@CPLAPCIC@IXRFRayTube?$AA@ 10017da4     dlldatax.obj
 0003:00001db0       ??_C@_0M@HGILDKF@IVacuumPump?$AA@ 10017db0     dlldatax.obj
 0003:00001dbc       ??_C@_09EBPMIANJ@IDetector?$AA@ 10017dbc     dlldatax.obj
 0003:00001dc8       ??_C@_0M@HHBFINPK@IXRFNetwork?$AA@ 10017dc8     dlldatax.obj
 0003:00001dd4       ??_C@_0P@EIGAJCDK@IElectromagnet?$AA@ 10017dd4     dlldatax.obj
 0003:00001de4       ??_C@_0N@EILOOKHK@IHighVoltage?$AA@ 10017de4     dlldatax.obj
 0003:00001df4       ??_C@_0N@CFPBNMIM@IHeightLaser?$AA@ 10017df4     dlldatax.obj
 0003:00001e04       ??_C@_0BC@DDMIAFFD@IDetectorCallBack?$AA@ 10017e04     dlldatax.obj
 0003:00001e18       ??_C@_0O@HODLAIHM@IMotorControl?$AA@ 10017e18     dlldatax.obj
 0003:00001e28       ??_C@_0L@GJPKFFIB@IApparatus?$AA@ 10017e28     dlldatax.obj
 0003:00001e34       ??_C@_0M@GGOBMAIE@IDetectData?$AA@ 10017e34     dlldatax.obj
 0003:00001e40       ??_C@_0P@JCEECNKN@ISurfaceSource?$AA@ 10017e40     dlldatax.obj
 0003:00001e50       ??_C@_0BB@DBCBJPBB@INetworkCallBack?$AA@ 10017e50     dlldatax.obj
 0003:00001e64       __GUID_00000146_0000_0000_c000_000000000046 10017e64     dllmain.obj
 0003:00001e78       ??_7CXRFNetModule@@6B@     10017e78     dllmain.obj
 0003:00001e90       ??_C@_1EO@PFBKHACB@?$AA?$HL?$AA5?$AA0?$AA7?$AA4?$AAC?$AA0?$AAA?$AA5?$AA?9?$AAB?$AA4?$AAE?$AAF?$AA?9?$AA4?$AAE?$AA9?$AAF?$AA?9?$AA9?$AAE?$AA1?$AA2?$AA?9?$AA0?$AA9?$AAF?$AAC?$AA5?$AA6?$AAE@ 10017e90     dllmain.obj
 0003:00001ee0       ??_C@_1M@PPPPCDEP@?$AAA?$AAP?$AAP?$AAI?$AAD?$AA?$AA@ 10017ee0     dllmain.obj
 0003:00001f0c       __GUID_0ca31212_c263_4c5a_82ad_4502a8099918 10017f0c     Electromagnet.obj
 0003:00001f1c       ?_entries@?1??_GetEntries@CElectromagnet@@SGPBU_ATL_INTMAP_ENTRY@ATL@@XZ@4QBU34@B 10017f1c     Electromagnet.obj
 0003:00001f40       __GUID_ee6c642c_4b0a_4d0e_9be3_02eda39bed4c 10017f40     Electromagnet.obj
 0003:00001f54       ??_7?$CComContainedObject@VCElectromagnet@@@ATL@@6B?$IDispatchImpl@UIElectromagnet@@$1?IID_IElectromagnet@@3U_GUID@@B$1?LIBID_XRFNetLib@@3U3@B$00$0A@VCComTypeInfoHolder@ATL@@@1@@ 10017f54     Electromagnet.obj
 0003:00001f7c       ??_7?$CComContainedObject@VCElectromagnet@@@ATL@@6BIEndPoint@NetLib@@@ 10017f7c     Electromagnet.obj
 0003:00001f98       ??_7?$CComAggObject@VCElectromagnet@@@ATL@@6B@ 10017f98     Electromagnet.obj
 0003:00001fac       ??_7?$CComObject@VCElectromagnet@@@ATL@@6B?$IDispatchImpl@UIElectromagnet@@$1?IID_IElectromagnet@@3U_GUID@@B$1?LIBID_XRFNetLib@@3U3@B$00$0A@VCComTypeInfoHolder@ATL@@@1@@ 10017fac     Electromagnet.obj
 0003:00001fd8       ??_7?$CComObject@VCElectromagnet@@@ATL@@6BIEndPoint@NetLib@@@ 10017fd8     Electromagnet.obj
 0003:00001ff0       ??_C@_1DA@MBILLJKJ@?$AAE?$AAv?$AAe?$AAn?$AAt?$AAA?$AAp?$AAp?$AAa?$AAr?$AAa?$AAt?$AAu?$AAs?$AAC?$AAo?$AAn?$AAn?$AAe?$AAc?$AAt?$AAe?$AAd?$AA?$AA@ 10017ff0     EventDef.obj
 0003:00002020       ??_C@_1CO@IFNDIEII@?$AAE?$AAv?$AAe?$AAn?$AAt?$AAA?$AAp?$AAp?$AAa?$AAr?$AAa?$AAt?$AAu?$AAs?$AAS?$AAh?$AAu?$AAt?$AAd?$AAo?$AAw?$AAn?$AA?$AA@ 10018020     EventDef.obj
 0003:00002050       ??_C@_1CK@GCKDFKMN@?$AAE?$AAv?$AAe?$AAn?$AAt?$AAR?$AAe?$AAm?$AAo?$AAt?$AAe?$AAC?$AAo?$AAn?$AAn?$AAe?$AAc?$AAt?$AAe?$AAd?$AA?$AA@ 10018050     EventDef.obj
 0003:0000207c       ??_C@_1CI@CPIGCAB@?$AAE?$AAv?$AAe?$AAn?$AAt?$AAR?$AAe?$AAm?$AAo?$AAt?$AAe?$AAS?$AAh?$AAu?$AAt?$AAd?$AAo?$AAw?$AAn?$AA?$AA@ 1001807c     EventDef.obj
 0003:000020a4       ??_C@_1DE@KEBMNCLI@?$AAE?$AAv?$AAe?$AAn?$AAt?$AAR?$AAe?$AAm?$AAo?$AAt?$AAe?$AAS?$AAe?$AAr?$AAv?$AAe?$AAr?$AAS?$AAh?$AAu?$AAt?$AAd?$AAo?$AAw?$AAn?$AA?$AA@ 100180a4     EventDef.obj
 0003:000020d8       ??_C@_1DC@FJFPDDJP@?$AAE?$AAv?$AAe?$AAn?$AAt?$AAR?$AAe?$AAc?$AAe?$AAi?$AAv?$AAe?$AAD?$AAe?$AAt?$AAe?$AAc?$AAt?$AAo?$AAr?$AAD?$AAa?$AAt?$AAa?$AA?$AA@ 100180d8     EventDef.obj
 0003:00002110       ??_7CEventMgr@@6B@         10018110     EventMgr.obj
 0003:0000212c       ??_C@_1O@ELLBDENI@?$AAS?$AAT?$AAA?$AAT?$AAI?$AAC?$AA?$AA@ 1001812c     EventMgr.obj
 0003:0000213c       ??_C@_0BB@MOGOBHAF@list?$DMT?$DO?5too?5long?$AA@ 1001813c     EventMgr.obj
 0003:00002150       ??_C@_0BE@JONHPENG@map?1set?$DMT?$DO?5too?5long?$AA@ 10018150     EventMgr.obj
 0003:00002184       __GUID_f5ddafc0_62ba_42c3_972e_189fe55699fb 10018184     HeightLaser.obj
 0003:00002194       ?_entries@?1??_GetEntries@CHeightLaser@@SGPBU_ATL_INTMAP_ENTRY@ATL@@XZ@4QBU34@B 10018194     HeightLaser.obj
 0003:000021b8       __GUID_d61bce8a_6193_4a76_beea_57a2462d01fb 100181b8     HeightLaser.obj
 0003:000021cc       ??_7?$CComContainedObject@VCHeightLaser@@@ATL@@6B?$IDispatchImpl@UIHeightLaser@@$1?IID_IHeightLaser@@3U_GUID@@B$1?LIBID_XRFNetLib@@3U3@B$00$0A@VCComTypeInfoHolder@ATL@@@1@@ 100181cc     HeightLaser.obj
 0003:000021ec       ??_7?$CComContainedObject@VCHeightLaser@@@ATL@@6BIEndPoint@NetLib@@@ 100181ec     HeightLaser.obj
 0003:00002208       ??_7?$CComAggObject@VCHeightLaser@@@ATL@@6B@ 10018208     HeightLaser.obj
 0003:0000221c       ??_7?$CComObject@VCHeightLaser@@@ATL@@6B?$IDispatchImpl@UIHeightLaser@@$1?IID_IHeightLaser@@3U_GUID@@B$1?LIBID_XRFNetLib@@3U3@B$00$0A@VCComTypeInfoHolder@ATL@@@1@@ 1001821c     HeightLaser.obj
 0003:00002240       ??_7?$CComObject@VCHeightLaser@@@ATL@@6BIEndPoint@NetLib@@@ 10018240     HeightLaser.obj
 0003:00002278       __GUID_802619f6_edc4_492c_b86b_7dc1d3b70005 10018278     HighVoltage.obj
 0003:00002288       ?_entries@?1??_GetEntries@CHighVoltage@@SGPBU_ATL_INTMAP_ENTRY@ATL@@XZ@4QBU34@B 10018288     HighVoltage.obj
 0003:000022ac       __GUID_b3cf2238_258c_4a72_9783_18f5a56f10a9 100182ac     HighVoltage.obj
 0003:000022c0       ??_7?$CComContainedObject@VCHighVoltage@@@ATL@@6B?$IDispatchImpl@UIHighVoltage@@$1?IID_IHighVoltage@@3U_GUID@@B$1?LIBID_XRFNetLib@@3U3@B$00$0A@VCComTypeInfoHolder@ATL@@@1@@ 100182c0     HighVoltage.obj
 0003:000022e0       ??_7?$CComContainedObject@VCHighVoltage@@@ATL@@6BIEndPoint@NetLib@@@ 100182e0     HighVoltage.obj
 0003:000022fc       ??_7?$CComAggObject@VCHighVoltage@@@ATL@@6B@ 100182fc     HighVoltage.obj
 0003:00002310       ??_7?$CComObject@VCHighVoltage@@@ATL@@6B?$IDispatchImpl@UIHighVoltage@@$1?IID_IHighVoltage@@3U_GUID@@B$1?LIBID_XRFNetLib@@3U3@B$00$0A@VCComTypeInfoHolder@ATL@@@1@@ 10018310     HighVoltage.obj
 0003:00002334       ??_7?$CComObject@VCHighVoltage@@@ATL@@6BIEndPoint@NetLib@@@ 10018334     HighVoltage.obj
 0003:0000236c       __GUID_d33504ef_6ded_4ff5_88d7_fede2c95a616 1001836c     MotorControl.obj
 0003:0000237c       ?_entries@?1??_GetEntries@CMotorControl@@SGPBU_ATL_INTMAP_ENTRY@ATL@@XZ@4QBU34@B 1001837c     MotorControl.obj
 0003:000023a0       __GUID_001e2793_623d_481b_b52e_1d6cc76da85d 100183a0     MotorControl.obj
 0003:000023b4       ??_7?$CComContainedObject@VCMotorControl@@@ATL@@6B?$IDispatchImpl@UIMotorControl@@$1?IID_IMotorControl@@3U_GUID@@B$1?LIBID_XRFNetLib@@3U3@B$00$0A@VCComTypeInfoHolder@ATL@@@1@@ 100183b4     MotorControl.obj
 0003:000023d4       ??_7?$CComContainedObject@VCMotorControl@@@ATL@@6BIEndPoint@NetLib@@@ 100183d4     MotorControl.obj
 0003:000023f0       ??_7?$CComAggObject@VCMotorControl@@@ATL@@6B@ 100183f0     MotorControl.obj
 0003:00002404       ??_7?$CComObject@VCMotorControl@@@ATL@@6B?$IDispatchImpl@UIMotorControl@@$1?IID_IMotorControl@@3U_GUID@@B$1?LIBID_XRFNetLib@@3U3@B$00$0A@VCComTypeInfoHolder@ATL@@@1@@ 10018404     MotorControl.obj
 0003:00002428       ??_7?$CComObject@VCMotorControl@@@ATL@@6BIEndPoint@NetLib@@@ 10018428     MotorControl.obj
 0003:00002440       ?g_uLocalIICVersion@@3IB   10018440     stdafx.obj
 0003:00002444       ?g_uLocalSPIVersion@@3IB   10018444     stdafx.obj
 0003:00002448       ??_C@_1M@KMJNBBAP@?$JK?XS?$ILc?$KHR6Vh?$AA?$AA@ 10018448     stdafx.obj
 0003:00002454       ??_C@_17PPCHOPKM@w?$BPzzl?u?$AA?$AA@ 10018454     stdafx.obj
 0003:0000245c       ??_C@_17JMEJIMOL@?$AAXQI?$HL?$KB?$AA?$AA@ 1001845c     stdafx.obj
 0003:00002464       ??_C@_15PJLGGCJN@u5g?3?$AA?$AA@ 10018464     stdafx.obj
 0003:0000246c       ??_C@_1BA@CPLNANLD@Y?$BK?$JASepcn?$JB?G?$JG?FVh?$AA?$AA@ 1001846c     stdafx.obj
 0003:0000247c       ??_C@_17MOFNHNFD@u5x?A?$JE?A?$AA?$AA@ 1001847c     stdafx.obj
 0003:00002484       ??_C@_1BA@DPLFEMJB@?$JK?X?$FO?$KGo?$MAQIc?$AHy?3Vh?$AA?$AA@ 10018484     stdafx.obj
 0003:00002494       ??_C@_1O@HHJMFIGL@?$JHbQIn?$JAc?$KHR6Vh?$AA?$AA@ 10018494     stdafx.obj
 0003:000024a4       ??_C@_17GIOICBKO@N?$ALOMg?3?$AA?$AA@ 100184a4     stdafx.obj
 0003:000024ac       ??_C@_1O@FGJPCFD@?$AAI?$AAI?$AACc?$KHR6Vh?$AA?$AA@ 100184ac     stdafx.obj
 0003:000024dc       __GUID_9fd8eb54_e882_4e70_a732_4c537807d5a9 100184dc     SurfaceSource.obj
 0003:000024ec       ?_entries@?1??_GetEntries@CSurfaceSource@@SGPBU_ATL_INTMAP_ENTRY@ATL@@XZ@4QBU34@B 100184ec     SurfaceSource.obj
 0003:00002510       __GUID_ff18e5ed_e54a_4d97_a2a5_ae335b0affe7 10018510     SurfaceSource.obj
 0003:00002524       ??_7?$CComContainedObject@VCSurfaceSource@@@ATL@@6B?$IDispatchImpl@UISurfaceSource@@$1?IID_ISurfaceSource@@3U_GUID@@B$1?LIBID_XRFNetLib@@3U3@B$00$0A@VCComTypeInfoHolder@ATL@@@1@@ 10018524     SurfaceSource.obj
 0003:00002544       ??_7?$CComContainedObject@VCSurfaceSource@@@ATL@@6BIEndPoint@NetLib@@@ 10018544     SurfaceSource.obj
 0003:00002560       ??_7?$CComAggObject@VCSurfaceSource@@@ATL@@6B@ 10018560     SurfaceSource.obj
 0003:00002574       ??_7?$CComObject@VCSurfaceSource@@@ATL@@6B?$IDispatchImpl@UISurfaceSource@@$1?IID_ISurfaceSource@@3U_GUID@@B$1?LIBID_XRFNetLib@@3U3@B$00$0A@VCComTypeInfoHolder@ATL@@@1@@ 10018574     SurfaceSource.obj
 0003:00002598       ??_7?$CComObject@VCSurfaceSource@@@ATL@@6BIEndPoint@NetLib@@@ 10018598     SurfaceSource.obj
 0003:000025d0       __GUID_3f182fd5_66c6_4edb_8ec0_8c067857d013 100185d0     VacuumPump.obj
 0003:000025e0       ?_entries@?1??_GetEntries@CVacuumPump@@SGPBU_ATL_INTMAP_ENTRY@ATL@@XZ@4QBU34@B 100185e0     VacuumPump.obj
 0003:00002604       __GUID_3ff9bf19_80a9_4a16_b457_c9009555c51f 10018604     VacuumPump.obj
 0003:00002618       ??_7?$CComContainedObject@VCVacuumPump@@@ATL@@6B?$IDispatchImpl@UIVacuumPump@@$1?IID_IVacuumPump@@3U_GUID@@B$1?LIBID_XRFNetLib@@3U3@B$00$0A@VCComTypeInfoHolder@ATL@@@1@@ 10018618     VacuumPump.obj
 0003:00002638       ??_7?$CComContainedObject@VCVacuumPump@@@ATL@@6BIEndPoint@NetLib@@@ 10018638     VacuumPump.obj
 0003:00002654       ??_7?$CComAggObject@VCVacuumPump@@@ATL@@6B@ 10018654     VacuumPump.obj
 0003:00002668       ??_7?$CComObject@VCVacuumPump@@@ATL@@6B?$IDispatchImpl@UIVacuumPump@@$1?IID_IVacuumPump@@3U_GUID@@B$1?LIBID_XRFNetLib@@3U3@B$00$0A@VCComTypeInfoHolder@ATL@@@1@@ 10018668     VacuumPump.obj
 0003:0000268c       ??_7?$CComObject@VCVacuumPump@@@ATL@@6BIEndPoint@NetLib@@@ 1001868c     VacuumPump.obj
 0003:000026a4       ??_C@_19ILOCMLCJ@?$AA?4?$AAt?$AAl?$AAb?$AA?$AA@ 100186a4     XRFNet.obj
 0003:000026b0       __GUID_0002e012_0000_0000_c000_000000000046 100186b0     XRFNet.obj
 0003:000026c0       ??_C@_1O@FHBGLCIO@?$AAC?$AAL?$AAS?$AAI?$AAD?$AA?2?$AA?$AA@ 100186c0     XRFNet.obj
 0003:000026d0       ??_C@_1CK@IFBKBFAA@?$AA?2?$AAR?$AAe?$AAq?$AAu?$AAi?$AAr?$AAe?$AAd?$AA?5?$AAC?$AAa?$AAt?$AAe?$AAg?$AAo?$AAr?$AAi?$AAe?$AAs?$AA?$AA@ 100186d0     XRFNet.obj
 0003:000026fc       ??_C@_1DA@BIHALFED@?$AA?2?$AAI?$AAm?$AAp?$AAl?$AAe?$AAm?$AAe?$AAn?$AAt?$AAe?$AAd?$AA?5?$AAC?$AAa?$AAt?$AAe?$AAg?$AAo?$AAr?$AAi?$AAe?$AAs?$AA?$AA@ 100186fc     XRFNet.obj
 0003:0000272c       ??_C@_1BK@EDKOLFBJ@?$AAO?$AAL?$AAE?$AAA?$AAU?$AAT?$AA3?$AA2?$AA?4?$AAD?$AAL?$AAL?$AA?$AA@ 1001872c     XRFNet.obj
 0003:00002748       ??_C@_0BJ@CNLFOMHB@UnRegisterTypeLibForUser?$AA@ 10018748     XRFNet.obj
 0003:00002764       ??_C@_0BH@LBOMMKPJ@RegisterTypeLibForUser?$AA@ 10018764     XRFNet.obj
 0003:000027a8       __GUID_14e8bf9b_b96f_4fbe_88bd_1b79ec215d57 100187a8     XRFNetwork.obj
 0003:000027bc       ??_7INetKernelCallback@NetLib@@6B@ 100187bc     XRFNetwork.obj
 0003:000027d0       ?_entries@?1??_GetEntries@CXRFNetwork@@SGPBU_ATL_INTMAP_ENTRY@ATL@@XZ@4QBU34@B 100187d0     XRFNetwork.obj
 0003:000027f4       __GUID_0f5c0627_33a9_49b2_8371_a4104389d718 100187f4     XRFNetwork.obj
 0003:00002804       ??_C@_1BG@PECJMPGA@?$AAN?$AAe?$AAt?$AAL?$AAi?$AAb?$AA?4?$AAd?$AAl?$AAl?$AA?$AA@ 10018804     XRFNetwork.obj
 0003:0000281c       ??_C@_0BA@BIOLDCPG@CreateNetKernel?$AA@ 1001881c     XRFNetwork.obj
 0003:00002830       ??_7?$CComContainedObject@VCXRFNetwork@@@ATL@@6B?$IDispatchImpl@UIXRFNetwork@@$1?IID_IXRFNetwork@@3U_GUID@@B$1?LIBID_XRFNetLib@@3U3@B$00$0A@VCComTypeInfoHolder@ATL@@@1@@ 10018830     XRFNetwork.obj
 0003:000028b4       ??_7?$CComContainedObject@VCXRFNetwork@@@ATL@@6BINetKernelCallback@NetLib@@@ 100188b4     XRFNetwork.obj
 0003:000028cc       ??_7?$CComContainedObject@VCXRFNetwork@@@ATL@@6BIEndPoint@NetLib@@@ 100188cc     XRFNetwork.obj
 0003:000028e8       ??_7?$CComContainedObject@VCXRFNetwork@@@ATL@@6BIEventListener@@@ 100188e8     XRFNetwork.obj
 0003:000028f0       ??_7?$CComAggObject@VCXRFNetwork@@@ATL@@6B@ 100188f0     XRFNetwork.obj
 0003:00002904       ??_7?$CComObject@VCXRFNetwork@@@ATL@@6B?$IDispatchImpl@UIXRFNetwork@@$1?IID_IXRFNetwork@@3U_GUID@@B$1?LIBID_XRFNetLib@@3U3@B$00$0A@VCComTypeInfoHolder@ATL@@@1@@ 10018904     XRFNetwork.obj
 0003:0000298c       ??_7?$CComObject@VCXRFNetwork@@@ATL@@6BINetKernelCallback@NetLib@@@ 1001898c     XRFNetwork.obj
 0003:000029a4       ??_7?$CComObject@VCXRFNetwork@@@ATL@@6BIEndPoint@NetLib@@@ 100189a4     XRFNetwork.obj
 0003:000029c0       ??_7?$CComObject@VCXRFNetwork@@@ATL@@6BIEventListener@@@ 100189c0     XRFNetwork.obj
 0003:000029c4       _IID_IXRFRayTube           100189c4     XRFNet_i.obj
 0003:000029d4       _IID_IHighVoltage          100189d4     XRFNet_i.obj
 0003:000029e4       _IID_IVacuumPump           100189e4     XRFNet_i.obj
 0003:000029f4       _IID_IMotorControl         100189f4     XRFNet_i.obj
 0003:00002a04       _IID_IElectromagnet        10018a04     XRFNet_i.obj
 0003:00002a14       _IID_IHeightLaser          10018a14     XRFNet_i.obj
 0003:00002a24       _IID_ISurfaceSource        10018a24     XRFNet_i.obj
 0003:00002a34       _IID_IDetectData           10018a34     XRFNet_i.obj
 0003:00002a44       _IID_IDetectorCallBack     10018a44     XRFNet_i.obj
 0003:00002a54       _IID_IDetector             10018a54     XRFNet_i.obj
 0003:00002a64       _IID_INetworkCallBack      10018a64     XRFNet_i.obj
 0003:00002a74       _IID_IApparatus            10018a74     XRFNet_i.obj
 0003:00002a84       _IID_IXRFNetwork           10018a84     XRFNet_i.obj
 0003:00002a94       _LIBID_XRFNetLib           10018a94     XRFNet_i.obj
 0003:00002aa4       _CLSID_XRFRay              10018aa4     XRFNet_i.obj
 0003:00002ab4       _CLSID_HighVoltage         10018ab4     XRFNet_i.obj
 0003:00002ac4       _CLSID_VacuumPump          10018ac4     XRFNet_i.obj
 0003:00002ad4       _CLSID_MotorControl        10018ad4     XRFNet_i.obj
 0003:00002ae4       _CLSID_Electromagnet       10018ae4     XRFNet_i.obj
 0003:00002af4       _CLSID_HeightLaser         10018af4     XRFNet_i.obj
 0003:00002b04       _CLSID_SurfaceSource       10018b04     XRFNet_i.obj
 0003:00002b14       _CLSID_DetectData          10018b14     XRFNet_i.obj
 0003:00002b24       _CLSID_Detector            10018b24     XRFNet_i.obj
 0003:00002b34       _CLSID_Apparatus           10018b34     XRFNet_i.obj
 0003:00002b44       _CLSID_XRFNetwork          10018b44     XRFNet_i.obj
 0003:00002b74       __GUID_e7045447_ba52_4ec9_8f74_1c9a807750cf 10018b74     XRFRayTube.obj
 0003:00002b84       ?_entries@?1??_GetEntries@CXRFRayTube@@SGPBU_ATL_INTMAP_ENTRY@ATL@@XZ@4QBU34@B 10018b84     XRFRayTube.obj
 0003:00002ba8       __GUID_b2018705_c2ae_4902_8ba5_0313921e3e0d 10018ba8     XRFRayTube.obj
 0003:00002bb8       ??_C@_1CC@DBPMCLAE@e6R0c?7?$JE?$KOr?$LG?$GA?$AB?$PP?$AMS?QQ?ze6R0O?a?$GAov?$IEO?aS?w?$AA?$AA@ 10018bb8     XRFRayTube.obj
 0003:00002bdc       ??_C@_1CC@NEHOCANJ@e6R0u5g?3r?$LG?$GA?$AB?$PP?$AMS?QQ?ze6R0O?a?$GAov?$IEO?aS?w?$AA?$AA@ 10018bdc     XRFRayTube.obj
 0003:00002c00       ??_C@_1CG@BNGAIMNA@e6R0QIu5_?$AAQsr?$LG?$GA?$AB?$PP?$AMS?QQ?ze6R0O?a?$GAov?$IEO?aS?w?$AA?$AA@ 10018c00     XRFRayTube.obj
 0003:00002c28       ??_C@_1BI@JFAGEEDA@S?Q?$JA?$AB?$ID?$LHS?VQIu5r?$LG?$GA?$ABv?$IE?$IL?wlB?$AA?$AA@ 10018c28     XRFRayTube.obj
 0003:00002c40       ??_C@_1BA@MJADICFD@?$HLI_?$IFN?$ALOMg?3?$FO?$JE?$HLT?$AA?$AA@ 10018c40     XRFRayTube.obj
 0003:00002c50       ??_C@_1BI@INPFKBJE@?$ID?$LHS?VQIu5v?$IEOM?$HPnO?a?$GAor?$LG?$GA?$AB?$AA?$AA@ 10018c50     XRFRayTube.obj
 0003:00002c68       ??_C@_19CIHAEFPD@?$HLI_?$IF?$IN?$IFe?v?$AA?$AA@ 10018c68     XRFRayTube.obj
 0003:00002c74       ??_C@_1CE@NGLKDMNI@?$JA?$BKw?eQvN?V?$JH?$AA?$IJ?$IB?$ID?$LHS?Vu5g?3r?$LG?$GA?$ABO?a?$GAov?$IE?$HO?$LPz?$AL?$AA?$AA@ 10018c74     XRFRayTube.obj
 0003:00002c98       ??_C@_1BM@NJCOCLHD@S?Q?$JA?$AB?$ID?$LHS?Vu5g?3O?a?$GAor?$LG?$GA?$ABv?$IE?$IL?wlB?$AA?$AA@ 10018c98     XRFRayTube.obj
 0003:00002cb4       ??_C@_1BG@BKCIDAEI@?$ID?$LHS?VR0u5g?3v?$IEO?a?$GAor?$LG?$GA?$AB?$AA?$AA@ 10018cb4     XRFRayTube.obj
 0003:00002cd0       ??_7?$CComContainedObject@VCXRFRayTube@@@ATL@@6B?$IDispatchImpl@UIXRFRayTube@@$1?IID_IXRFRayTube@@3U_GUID@@B$1?LIBID_XRFNetLib@@3U3@B$00$0A@VCComTypeInfoHolder@ATL@@@1@@ 10018cd0     XRFRayTube.obj
 0003:00002d60       ??_7?$CComContainedObject@VCXRFRayTube@@@ATL@@6BIEndPoint@NetLib@@@ 10018d60     XRFRayTube.obj
 0003:00002d7c       ??_7?$CComAggObject@VCXRFRayTube@@@ATL@@6B@ 10018d7c     XRFRayTube.obj
 0003:00002d90       ??_7?$CComObject@VCXRFRayTube@@@ATL@@6B?$IDispatchImpl@UIXRFRayTube@@$1?IID_IXRFRayTube@@3U_GUID@@B$1?LIBID_XRFNetLib@@3U3@B$00$0A@VCComTypeInfoHolder@ATL@@@1@@ 10018d90     XRFRayTube.obj
 0003:00002e24       ??_7?$CComObject@VCXRFRayTube@@@ATL@@6BIEndPoint@NetLib@@@ 10018e24     XRFRayTube.obj
 0003:00002e3c       _IID_IDispatch             10018e3c     uuid:oaidl_i.obj
 0003:00002e4c       _GUID_NULL                 10018e4c     uuid:cguid_i.obj
 0003:00002e5c       _CLSID_StdGlobalInterfaceTable 10018e5c     uuid:cguid_i.obj
 0003:00002e6c       _CLSID_StdComponentCategoriesMgr 10018e6c     uuid:ieguids.obj
 0003:00002e7c       _GUID_ATLVer110            10018e7c     atls:atlbase.obj
 0003:00002e90       ??_C@_1IC@ONKHOIDK@?$AAE?$AAR?$AAR?$AAO?$AAR?$AA?5?$AA?3?$AA?5?$AAU?$AAn?$AAa?$AAb?$AAl?$AAe?$AA?5?$AAt?$AAo?$AA?5?$AAi?$AAn?$AAi?$AAt?$AAi?$AAa?$AAl?$AAi?$AAz?$AAe?$AA?5?$AAc?$AAr?$AAi@ 10018e90     atls:atlbase.obj
 0003:00002f1c       ??_C@_1BK@MGMFAEKH@?$AAk?$AAe?$AAr?$AAn?$AAe?$AAl?$AA3?$AA2?$AA?4?$AAd?$AAl?$AAl?$AA?$AA@ 10018f1c     MSVCRT:thread_safe_statics.obj
 0003:00002f38       ??_C@_0BM@HLJJNPAH@InitializeConditionVariable?$AA@ 10018f38     MSVCRT:thread_safe_statics.obj
 0003:00002f54       ??_C@_0BJ@JEBJOJFJ@SleepConditionVariableCS?$AA@ 10018f54     MSVCRT:thread_safe_statics.obj
 0003:00002f70       ??_C@_0BJ@PGPPEPCC@WakeAllConditionVariable?$AA@ 10018f70     MSVCRT:thread_safe_statics.obj
 0003:00002f90       ??_7type_info@@6B@         10018f90     MSVCRT:std_type_info_static.obj
 0003:00003024       __pDefaultRawDllMain       10019024     MSVCRT:dll_dllmain.obj
 0003:00003024       __pRawDllMain              10019024     MSVCRT:dll_dllmain.obj
 0003:0000302c       ??_7exception@std@@6B@     1001902c     MSVCRT:throw_bad_alloc.obj
 0003:00003034       ??_C@_0BC@EOODALEL@Unknown?5exception?$AA@ 10019034     MSVCRT:throw_bad_alloc.obj
 0003:0000304c       ??_7bad_alloc@std@@6B@     1001904c     MSVCRT:throw_bad_alloc.obj
 0003:00003054       ??_C@_0P@GHFPNOJB@bad?5allocation?$AA@ 10019054     MSVCRT:throw_bad_alloc.obj
 0003:00003068       ??_7bad_array_new_length@std@@6B@ 10019068     MSVCRT:throw_bad_alloc.obj
 0003:00003070       ??_C@_0BF@KINCDENJ@bad?5array?5new?5length?$AA@ 10019070     MSVCRT:throw_bad_alloc.obj
 0003:00003088       ??_C@_0BH@HHDGIIFB@0123456789abcdefABCDEF?$AA@ 10019088     SkyrayLib:SkyrayUtil.obj
 0003:000030a0       ??_C@_1CO@DKIKAOPP@?$AA0?$AA1?$AA2?$AA3?$AA4?$AA5?$AA6?$AA7?$AA8?$AA9?$AAa?$AAb?$AAc?$AAd?$AAe?$AAf?$AAA?$AAB?$AAC?$AAD?$AAE?$AAF?$AA?$AA@ 100190a0     SkyrayLib:SkyrayUtil.obj
 0003:000030d0       ??_C@_0BI@CFPLBAOH@invalid?5string?5position?$AA@ 100190d0     SkyrayLib:SkyrayUtil.obj
 0003:000030e8       ??_C@_0BA@JFNIOLAK@string?5too?5long?$AA@ 100190e8     SkyrayLib:SkyrayUtil.obj
 0003:00003158       __load_config_used         10019158     MSVCRT:loadcfg.obj
 0003:000031b4       __tls_used                 100191b4     MSVCRT:tlssup.obj
 0003:000031cc       ??_R3IUnknown@@8           100191cc     Apparatus.obj
 0003:000031dc       ??_R2IUnknown@@8           100191dc     Apparatus.obj
 0003:000031e4       ??_R1A@?0A@EA@IUnknown@@8  100191e4     Apparatus.obj
 0003:00003200       ??_R3IDispatch@@8          10019200     Apparatus.obj
 0003:00003210       ??_R2IDispatch@@8          10019210     Apparatus.obj
 0003:0000321c       ??_R1A@?0A@EA@IDispatch@@8 1001921c     Apparatus.obj
 0003:00003238       ??_R3IRegistrarBase@@8     10019238     Apparatus.obj
 0003:00003248       ??_R2IRegistrarBase@@8     10019248     Apparatus.obj
 0003:00003254       ??_R1A@?0A@EA@IRegistrarBase@@8 10019254     Apparatus.obj
 0003:00003270       ??_R4CRegObject@ATL@@6B@   10019270     Apparatus.obj
 0003:00003284       ??_R3CRegObject@ATL@@8     10019284     Apparatus.obj
 0003:00003294       ??_R2CRegObject@ATL@@8     10019294     Apparatus.obj
 0003:000032a4       ??_R1A@?0A@EA@CRegObject@ATL@@8 100192a4     Apparatus.obj
 0003:000032c0       ??_R4CComClassFactory@ATL@@6B@ 100192c0     Apparatus.obj
 0003:000032d4       ??_R3CComClassFactory@ATL@@8 100192d4     Apparatus.obj
 0003:000032e4       ??_R2CComClassFactory@ATL@@8 100192e4     Apparatus.obj
 0003:000032fc       ??_R1A@?0A@EA@CComClassFactory@ATL@@8 100192fc     Apparatus.obj
 0003:00003318       ??_R1A@?0A@EA@IClassFactory@@8 10019318     Apparatus.obj
 0003:00003334       ??_R3IClassFactory@@8      10019334     Apparatus.obj
 0003:00003344       ??_R2IClassFactory@@8      10019344     Apparatus.obj
 0003:00003350       ??_R13?0A@EA@?$CComObjectRootEx@VCComMultiThreadModel@ATL@@@ATL@@8 10019350     Apparatus.obj
 0003:0000336c       ??_R3?$CComObjectRootEx@VCComMultiThreadModel@ATL@@@ATL@@8 1001936c     Apparatus.obj
 0003:0000337c       ??_R2?$CComObjectRootEx@VCComMultiThreadModel@ATL@@@ATL@@8 1001937c     Apparatus.obj
 0003:00003388       ??_R1A@?0A@EA@?$CComObjectRootEx@VCComMultiThreadModel@ATL@@@ATL@@8 10019388     Apparatus.obj
 0003:000033a4       ??_R1A@?0A@EA@CComObjectRootBase@ATL@@8 100193a4     Apparatus.obj
 0003:000033c0       ??_R3CComObjectRootBase@ATL@@8 100193c0     Apparatus.obj
 0003:000033d0       ??_R2CComObjectRootBase@ATL@@8 100193d0     Apparatus.obj
 0003:000033d8       ??_R13?0A@EA@CComObjectRootBase@ATL@@8 100193d8     Apparatus.obj
 0003:000033f4       ??_R4?$CComObjectCached@VCComClassFactory@ATL@@@ATL@@6B@ 100193f4     Apparatus.obj
 0003:00003408       ??_R3?$CComObjectCached@VCComClassFactory@ATL@@@ATL@@8 10019408     Apparatus.obj
 0003:00003418       ??_R2?$CComObjectCached@VCComClassFactory@ATL@@@ATL@@8 10019418     Apparatus.obj
 0003:00003434       ??_R1A@?0A@EA@?$CComObjectCached@VCComClassFactory@ATL@@@ATL@@8 10019434     Apparatus.obj
 0003:00003450       ??_R4IEndPoint@NetLib@@6B@ 10019450     Apparatus.obj
 0003:00003464       ??_R3IEndPoint@NetLib@@8   10019464     Apparatus.obj
 0003:00003474       ??_R2IEndPoint@NetLib@@8   10019474     Apparatus.obj
 0003:0000347c       ??_R1A@?0A@EA@IEndPoint@NetLib@@8 1001947c     Apparatus.obj
 0003:00003498       ??_R3IApparatus@@8         10019498     Apparatus.obj
 0003:000034a8       ??_R2IApparatus@@8         100194a8     Apparatus.obj
 0003:000034b8       ??_R1A@?0A@EA@IApparatus@@8 100194b8     Apparatus.obj
 0003:000034d4       ??_R3CApparatus@@8         100194d4     Apparatus.obj
 0003:000034e4       ??_R2CApparatus@@8         100194e4     Apparatus.obj
 0003:0000350c       ??_R1A@?0A@EA@CApparatus@@8 1001950c     Apparatus.obj
 0003:00003528       ??_R17?0A@EA@?$CComObjectRootEx@VCComMultiThreadModel@ATL@@@ATL@@8 10019528     Apparatus.obj
 0003:00003544       ??_R17?0A@EA@CComObjectRootBase@ATL@@8 10019544     Apparatus.obj
 0003:00003560       ??_R1CI@?0A@EA@?$CComCoClass@VCApparatus@@$1?CLSID_Apparatus@@3U_GUID@@B@ATL@@8 10019560     Apparatus.obj
 0003:0000357c       ??_R3?$CComCoClass@VCApparatus@@$1?CLSID_Apparatus@@3U_GUID@@B@ATL@@8 1001957c     Apparatus.obj
 0003:0000358c       ??_R2?$CComCoClass@VCApparatus@@$1?CLSID_Apparatus@@3U_GUID@@B@ATL@@8 1001958c     Apparatus.obj
 0003:00003594       ??_R1A@?0A@EA@?$CComCoClass@VCApparatus@@$1?CLSID_Apparatus@@3U_GUID@@B@ATL@@8 10019594     Apparatus.obj
 0003:000035b0       ??_R1A@?0A@EA@?$IDispatchImpl@UIApparatus@@$1?IID_IApparatus@@3U_GUID@@B$1?LIBID_XRFNetLib@@3U3@B$00$0A@VCComTypeInfoHolder@ATL@@@ATL@@8 100195b0     Apparatus.obj
 0003:000035cc       ??_R3?$IDispatchImpl@UIApparatus@@$1?IID_IApparatus@@3U_GUID@@B$1?LIBID_XRFNetLib@@3U3@B$00$0A@VCComTypeInfoHolder@ATL@@@ATL@@8 100195cc     Apparatus.obj
 0003:000035dc       ??_R2?$IDispatchImpl@UIApparatus@@$1?IID_IApparatus@@3U_GUID@@B$1?LIBID_XRFNetLib@@3U3@B$00$0A@VCComTypeInfoHolder@ATL@@@ATL@@8 100195dc     Apparatus.obj
 0003:000035f0       ??_R13?0A@EA@IEndPoint@NetLib@@8 100195f0     Apparatus.obj
 0003:0000360c       ??_R4?$CComObject@VCApparatus@@@ATL@@6B?$IDispatchImpl@UIApparatus@@$1?IID_IApparatus@@3U_GUID@@B$1?LIBID_XRFNetLib@@3U3@B$00$0A@VCComTypeInfoHolder@ATL@@@1@@ 1001960c     Apparatus.obj
 0003:00003620       ??_R3?$CComObject@VCApparatus@@@ATL@@8 10019620     Apparatus.obj
 0003:00003630       ??_R2?$CComObject@VCApparatus@@@ATL@@8 10019630     Apparatus.obj
 0003:0000365c       ??_R1A@?0A@EA@?$CComObject@VCApparatus@@@ATL@@8 1001965c     Apparatus.obj
 0003:00003678       ??_R4?$CComObject@VCApparatus@@@ATL@@6BIEndPoint@NetLib@@@ 10019678     Apparatus.obj
 0003:0000368c       ??_R4?$CComAggObject@VCApparatus@@@ATL@@6B@ 1001968c     Apparatus.obj
 0003:000036a0       ??_R3?$CComAggObject@VCApparatus@@@ATL@@8 100196a0     Apparatus.obj
 0003:000036b0       ??_R2?$CComAggObject@VCApparatus@@@ATL@@8 100196b0     Apparatus.obj
 0003:000036c4       ??_R1A@?0A@EA@?$CComAggObject@VCApparatus@@@ATL@@8 100196c4     Apparatus.obj
 0003:000036e0       ??_R13?0A@EA@?$CComObjectRootEx@VCComMultiThreadModelNoCS@ATL@@@ATL@@8 100196e0     Apparatus.obj
 0003:000036fc       ??_R3?$CComObjectRootEx@VCComMultiThreadModelNoCS@ATL@@@ATL@@8 100196fc     Apparatus.obj
 0003:0000370c       ??_R2?$CComObjectRootEx@VCComMultiThreadModelNoCS@ATL@@@ATL@@8 1001970c     Apparatus.obj
 0003:00003718       ??_R1A@?0A@EA@?$CComObjectRootEx@VCComMultiThreadModelNoCS@ATL@@@ATL@@8 10019718     Apparatus.obj
 0003:00003734       ??_R4?$CComContainedObject@VCApparatus@@@ATL@@6B?$IDispatchImpl@UIApparatus@@$1?IID_IApparatus@@3U_GUID@@B$1?LIBID_XRFNetLib@@3U3@B$00$0A@VCComTypeInfoHolder@ATL@@@1@@ 10019734     Apparatus.obj
 0003:00003748       ??_R3?$CComContainedObject@VCApparatus@@@ATL@@8 10019748     Apparatus.obj
 0003:00003758       ??_R2?$CComContainedObject@VCApparatus@@@ATL@@8 10019758     Apparatus.obj
 0003:00003784       ??_R1A@?0A@EA@?$CComContainedObject@VCApparatus@@@ATL@@8 10019784     Apparatus.obj
 0003:000037a0       ??_R4?$CComContainedObject@VCApparatus@@@ATL@@6BIEndPoint@NetLib@@@ 100197a0     Apparatus.obj
 0003:000037b4       ??_R3IDetectData@@8        100197b4     DetectData.obj
 0003:000037c4       ??_R2IDetectData@@8        100197c4     DetectData.obj
 0003:000037d4       ??_R1A@?0A@EA@IDetectData@@8 100197d4     DetectData.obj
 0003:000037f0       ??_R3CDetectData@@8        100197f0     DetectData.obj
 0003:00003800       ??_R2CDetectData@@8        10019800     DetectData.obj
 0003:00003824       ??_R1A@?0A@EA@CDetectData@@8 10019824     DetectData.obj
 0003:00003840       ??_R1CE@?0A@EA@?$CComCoClass@VCDetectData@@$1?CLSID_DetectData@@3U_GUID@@B@ATL@@8 10019840     DetectData.obj
 0003:0000385c       ??_R3?$CComCoClass@VCDetectData@@$1?CLSID_DetectData@@3U_GUID@@B@ATL@@8 1001985c     DetectData.obj
 0003:0000386c       ??_R2?$CComCoClass@VCDetectData@@$1?CLSID_DetectData@@3U_GUID@@B@ATL@@8 1001986c     DetectData.obj
 0003:00003874       ??_R1A@?0A@EA@?$CComCoClass@VCDetectData@@$1?CLSID_DetectData@@3U_GUID@@B@ATL@@8 10019874     DetectData.obj
 0003:00003890       ??_R1A@?0A@EA@?$IDispatchImpl@UIDetectData@@$1?IID_IDetectData@@3U_GUID@@B$1?LIBID_XRFNetLib@@3U3@B$00$0A@VCComTypeInfoHolder@ATL@@@ATL@@8 10019890     DetectData.obj
 0003:000038ac       ??_R3?$IDispatchImpl@UIDetectData@@$1?IID_IDetectData@@3U_GUID@@B$1?LIBID_XRFNetLib@@3U3@B$00$0A@VCComTypeInfoHolder@ATL@@@ATL@@8 100198ac     DetectData.obj
 0003:000038bc       ??_R2?$IDispatchImpl@UIDetectData@@$1?IID_IDetectData@@3U_GUID@@B$1?LIBID_XRFNetLib@@3U3@B$00$0A@VCComTypeInfoHolder@ATL@@@ATL@@8 100198bc     DetectData.obj
 0003:000038d0       ??_R4?$CComObject@VCDetectData@@@ATL@@6B@ 100198d0     DetectData.obj
 0003:000038e4       ??_R3?$CComObject@VCDetectData@@@ATL@@8 100198e4     DetectData.obj
 0003:000038f4       ??_R2?$CComObject@VCDetectData@@@ATL@@8 100198f4     DetectData.obj
 0003:0000391c       ??_R1A@?0A@EA@?$CComObject@VCDetectData@@@ATL@@8 1001991c     DetectData.obj
 0003:00003938       ??_R4?$CComAggObject@VCDetectData@@@ATL@@6B@ 10019938     DetectData.obj
 0003:0000394c       ??_R3?$CComAggObject@VCDetectData@@@ATL@@8 1001994c     DetectData.obj
 0003:0000395c       ??_R2?$CComAggObject@VCDetectData@@@ATL@@8 1001995c     DetectData.obj
 0003:00003970       ??_R1A@?0A@EA@?$CComAggObject@VCDetectData@@@ATL@@8 10019970     DetectData.obj
 0003:0000398c       ??_R4?$CComContainedObject@VCDetectData@@@ATL@@6B@ 1001998c     DetectData.obj
 0003:000039a0       ??_R3?$CComContainedObject@VCDetectData@@@ATL@@8 100199a0     DetectData.obj
 0003:000039b0       ??_R2?$CComContainedObject@VCDetectData@@@ATL@@8 100199b0     DetectData.obj
 0003:000039d8       ??_R1A@?0A@EA@?$CComContainedObject@VCDetectData@@@ATL@@8 100199d8     DetectData.obj
 0003:000039f4       ??_R3IDetector@@8          100199f4     Detector.obj
 0003:00003a04       ??_R2IDetector@@8          10019a04     Detector.obj
 0003:00003a14       ??_R1A@?0A@EA@IDetector@@8 10019a14     Detector.obj
 0003:00003a30       ??_R4IEventListener@@6B@   10019a30     Detector.obj
 0003:00003a44       ??_R3IEventListener@@8     10019a44     Detector.obj
 0003:00003a54       ??_R2IEventListener@@8     10019a54     Detector.obj
 0003:00003a5c       ??_R1A@?0A@EA@IEventListener@@8 10019a5c     Detector.obj
 0003:00003a78       ??_R3CDetector@@8          10019a78     Detector.obj
 0003:00003a88       ??_R2CDetector@@8          10019a88     Detector.obj
 0003:00003ab4       ??_R1A@?0A@EA@CDetector@@8 10019ab4     Detector.obj
 0003:00003ad0       ??_R1M@?0A@EA@?$CComObjectRootEx@VCComMultiThreadModel@ATL@@@ATL@@8 10019ad0     Detector.obj
 0003:00003aec       ??_R1M@?0A@EA@CComObjectRootBase@ATL@@8 10019aec     Detector.obj
 0003:00003b08       ??_R1CM@?0A@EA@?$CComCoClass@VCDetector@@$1?CLSID_Detector@@3U_GUID@@B@ATL@@8 10019b08     Detector.obj
 0003:00003b24       ??_R3?$CComCoClass@VCDetector@@$1?CLSID_Detector@@3U_GUID@@B@ATL@@8 10019b24     Detector.obj
 0003:00003b34       ??_R2?$CComCoClass@VCDetector@@$1?CLSID_Detector@@3U_GUID@@B@ATL@@8 10019b34     Detector.obj
 0003:00003b3c       ??_R1A@?0A@EA@?$CComCoClass@VCDetector@@$1?CLSID_Detector@@3U_GUID@@B@ATL@@8 10019b3c     Detector.obj
 0003:00003b58       ??_R1A@?0A@EA@?$IDispatchImpl@UIDetector@@$1?IID_IDetector@@3U_GUID@@B$1?LIBID_XRFNetLib@@3U3@B$00$0A@VCComTypeInfoHolder@ATL@@@ATL@@8 10019b58     Detector.obj
 0003:00003b74       ??_R3?$IDispatchImpl@UIDetector@@$1?IID_IDetector@@3U_GUID@@B$1?LIBID_XRFNetLib@@3U3@B$00$0A@VCComTypeInfoHolder@ATL@@@ATL@@8 10019b74     Detector.obj
 0003:00003b84       ??_R2?$IDispatchImpl@UIDetector@@$1?IID_IDetector@@3U_GUID@@B$1?LIBID_XRFNetLib@@3U3@B$00$0A@VCComTypeInfoHolder@ATL@@@ATL@@8 10019b84     Detector.obj
 0003:00003b98       ??_R17?0A@EA@IEventListener@@8 10019b98     Detector.obj
 0003:00003bb4       ??_R4?$CComObject@VCDetector@@@ATL@@6B?$IDispatchImpl@UIDetector@@$1?IID_IDetector@@3U_GUID@@B$1?LIBID_XRFNetLib@@3U3@B$00$0A@VCComTypeInfoHolder@ATL@@@1@@ 10019bb4     Detector.obj
 0003:00003bc8       ??_R3?$CComObject@VCDetector@@@ATL@@8 10019bc8     Detector.obj
 0003:00003bd8       ??_R2?$CComObject@VCDetector@@@ATL@@8 10019bd8     Detector.obj
 0003:00003c08       ??_R1A@?0A@EA@?$CComObject@VCDetector@@@ATL@@8 10019c08     Detector.obj
 0003:00003c24       ??_R4?$CComObject@VCDetector@@@ATL@@6BIEndPoint@NetLib@@@ 10019c24     Detector.obj
 0003:00003c38       ??_R4?$CComObject@VCDetector@@@ATL@@6BIEventListener@@@ 10019c38     Detector.obj
 0003:00003c4c       ??_R4?$CComAggObject@VCDetector@@@ATL@@6B@ 10019c4c     Detector.obj
 0003:00003c60       ??_R3?$CComAggObject@VCDetector@@@ATL@@8 10019c60     Detector.obj
 0003:00003c70       ??_R2?$CComAggObject@VCDetector@@@ATL@@8 10019c70     Detector.obj
 0003:00003c84       ??_R1A@?0A@EA@?$CComAggObject@VCDetector@@@ATL@@8 10019c84     Detector.obj
 0003:00003ca0       ??_R4?$CComContainedObject@VCDetector@@@ATL@@6B?$IDispatchImpl@UIDetector@@$1?IID_IDetector@@3U_GUID@@B$1?LIBID_XRFNetLib@@3U3@B$00$0A@VCComTypeInfoHolder@ATL@@@1@@ 10019ca0     Detector.obj
 0003:00003cb4       ??_R3?$CComContainedObject@VCDetector@@@ATL@@8 10019cb4     Detector.obj
 0003:00003cc4       ??_R2?$CComContainedObject@VCDetector@@@ATL@@8 10019cc4     Detector.obj
 0003:00003cf4       ??_R1A@?0A@EA@?$CComContainedObject@VCDetector@@@ATL@@8 10019cf4     Detector.obj
 0003:00003d10       ??_R4?$CComContainedObject@VCDetector@@@ATL@@6BIEndPoint@NetLib@@@ 10019d10     Detector.obj
 0003:00003d24       ??_R4?$CComContainedObject@VCDetector@@@ATL@@6BIEventListener@@@ 10019d24     Detector.obj
 0003:00003d38       ??_R3CAtlModule@ATL@@8     10019d38     dllmain.obj
 0003:00003d48       ??_R2CAtlModule@ATL@@8     10019d48     dllmain.obj
 0003:00003d54       ??_R1A@?0A@EA@CAtlModule@ATL@@8 10019d54     dllmain.obj
 0003:00003d70       ??_R13?0A@EA@_ATL_MODULE70@ATL@@8 10019d70     dllmain.obj
 0003:00003d8c       ??_R3_ATL_MODULE70@ATL@@8  10019d8c     dllmain.obj
 0003:00003d9c       ??_R2_ATL_MODULE70@ATL@@8  10019d9c     dllmain.obj
 0003:00003da4       ??_R1A@?0A@EA@_ATL_MODULE70@ATL@@8 10019da4     dllmain.obj
 0003:00003dc0       ??_R4CXRFNetModule@@6B@    10019dc0     dllmain.obj
 0003:00003dd4       ??_R3CXRFNetModule@@8      10019dd4     dllmain.obj
 0003:00003de4       ??_R2CXRFNetModule@@8      10019de4     dllmain.obj
 0003:00003e00       ??_R1A@?0A@EA@CXRFNetModule@@8 10019e00     dllmain.obj
 0003:00003e1c       ??_R1A@?0A@EA@?$CAtlDllModuleT@VCXRFNetModule@@@ATL@@8 10019e1c     dllmain.obj
 0003:00003e38       ??_R3?$CAtlDllModuleT@VCXRFNetModule@@@ATL@@8 10019e38     dllmain.obj
 0003:00003e48       ??_R2?$CAtlDllModuleT@VCXRFNetModule@@@ATL@@8 10019e48     dllmain.obj
 0003:00003e60       ??_R1A@?0A@EA@?$CAtlModuleT@VCXRFNetModule@@@ATL@@8 10019e60     dllmain.obj
 0003:00003e7c       ??_R3?$CAtlModuleT@VCXRFNetModule@@@ATL@@8 10019e7c     dllmain.obj
 0003:00003e8c       ??_R2?$CAtlModuleT@VCXRFNetModule@@@ATL@@8 10019e8c     dllmain.obj
 0003:00003e9c       ??_R1CM@?0A@EN@?$CAtlValidateModuleConfiguration@$00VCXRFNetModule@@@ATL@@8 10019e9c     dllmain.obj
 0003:00003eb8       ??_R3?$CAtlValidateModuleConfiguration@$00VCXRFNetModule@@@ATL@@8 10019eb8     dllmain.obj
 0003:00003ec8       ??_R2?$CAtlValidateModuleConfiguration@$00VCXRFNetModule@@@ATL@@8 10019ec8     dllmain.obj
 0003:00003ed0       ??_R1A@?0A@EA@?$CAtlValidateModuleConfiguration@$00VCXRFNetModule@@@ATL@@8 10019ed0     dllmain.obj
 0003:00003eec       ??_R3IElectromagnet@@8     10019eec     Electromagnet.obj
 0003:00003efc       ??_R2IElectromagnet@@8     10019efc     Electromagnet.obj
 0003:00003f0c       ??_R1A@?0A@EA@IElectromagnet@@8 10019f0c     Electromagnet.obj
 0003:00003f28       ??_R3CElectromagnet@@8     10019f28     Electromagnet.obj
 0003:00003f38       ??_R2CElectromagnet@@8     10019f38     Electromagnet.obj
 0003:00003f60       ??_R1A@?0A@EA@CElectromagnet@@8 10019f60     Electromagnet.obj
 0003:00003f7c       ??_R1CI@?0A@EA@?$CComCoClass@VCElectromagnet@@$1?CLSID_Electromagnet@@3U_GUID@@B@ATL@@8 10019f7c     Electromagnet.obj
 0003:00003f98       ??_R3?$CComCoClass@VCElectromagnet@@$1?CLSID_Electromagnet@@3U_GUID@@B@ATL@@8 10019f98     Electromagnet.obj
 0003:00003fa8       ??_R2?$CComCoClass@VCElectromagnet@@$1?CLSID_Electromagnet@@3U_GUID@@B@ATL@@8 10019fa8     Electromagnet.obj
 0003:00003fb0       ??_R1A@?0A@EA@?$CComCoClass@VCElectromagnet@@$1?CLSID_Electromagnet@@3U_GUID@@B@ATL@@8 10019fb0     Electromagnet.obj
 0003:00003fcc       ??_R1A@?0A@EA@?$IDispatchImpl@UIElectromagnet@@$1?IID_IElectromagnet@@3U_GUID@@B$1?LIBID_XRFNetLib@@3U3@B$00$0A@VCComTypeInfoHolder@ATL@@@ATL@@8 10019fcc     Electromagnet.obj
 0003:00003fe8       ??_R3?$IDispatchImpl@UIElectromagnet@@$1?IID_IElectromagnet@@3U_GUID@@B$1?LIBID_XRFNetLib@@3U3@B$00$0A@VCComTypeInfoHolder@ATL@@@ATL@@8 10019fe8     Electromagnet.obj
 0003:00003ff8       ??_R2?$IDispatchImpl@UIElectromagnet@@$1?IID_IElectromagnet@@3U_GUID@@B$1?LIBID_XRFNetLib@@3U3@B$00$0A@VCComTypeInfoHolder@ATL@@@ATL@@8 10019ff8     Electromagnet.obj
 0003:0000400c       ??_R4?$CComObject@VCElectromagnet@@@ATL@@6B?$IDispatchImpl@UIElectromagnet@@$1?IID_IElectromagnet@@3U_GUID@@B$1?LIBID_XRFNetLib@@3U3@B$00$0A@VCComTypeInfoHolder@ATL@@@1@@ 1001a00c     Electromagnet.obj
 0003:00004020       ??_R3?$CComObject@VCElectromagnet@@@ATL@@8 1001a020     Electromagnet.obj
 0003:00004030       ??_R2?$CComObject@VCElectromagnet@@@ATL@@8 1001a030     Electromagnet.obj
 0003:0000405c       ??_R1A@?0A@EA@?$CComObject@VCElectromagnet@@@ATL@@8 1001a05c     Electromagnet.obj
 0003:00004078       ??_R4?$CComObject@VCElectromagnet@@@ATL@@6BIEndPoint@NetLib@@@ 1001a078     Electromagnet.obj
 0003:0000408c       ??_R4?$CComAggObject@VCElectromagnet@@@ATL@@6B@ 1001a08c     Electromagnet.obj
 0003:000040a0       ??_R3?$CComAggObject@VCElectromagnet@@@ATL@@8 1001a0a0     Electromagnet.obj
 0003:000040b0       ??_R2?$CComAggObject@VCElectromagnet@@@ATL@@8 1001a0b0     Electromagnet.obj
 0003:000040c4       ??_R1A@?0A@EA@?$CComAggObject@VCElectromagnet@@@ATL@@8 1001a0c4     Electromagnet.obj
 0003:000040e0       ??_R4?$CComContainedObject@VCElectromagnet@@@ATL@@6B?$IDispatchImpl@UIElectromagnet@@$1?IID_IElectromagnet@@3U_GUID@@B$1?LIBID_XRFNetLib@@3U3@B$00$0A@VCComTypeInfoHolder@ATL@@@1@@ 1001a0e0     Electromagnet.obj
 0003:000040f4       ??_R3?$CComContainedObject@VCElectromagnet@@@ATL@@8 1001a0f4     Electromagnet.obj
 0003:00004104       ??_R2?$CComContainedObject@VCElectromagnet@@@ATL@@8 1001a104     Electromagnet.obj
 0003:00004130       ??_R1A@?0A@EA@?$CComContainedObject@VCElectromagnet@@@ATL@@8 1001a130     Electromagnet.obj
 0003:0000414c       ??_R4?$CComContainedObject@VCElectromagnet@@@ATL@@6BIEndPoint@NetLib@@@ 1001a14c     Electromagnet.obj
 0003:00004160       ??_R4CEventMgr@@6B@        1001a160     EventMgr.obj
 0003:00004174       ??_R3CEventMgr@@8          1001a174     EventMgr.obj
 0003:00004184       ??_R2CEventMgr@@8          1001a184     EventMgr.obj
 0003:00004190       ??_R1A@?0A@EA@CEventMgr@@8 1001a190     EventMgr.obj
 0003:000041ac       ??_R1A@?0A@EA@IEventMgr@@8 1001a1ac     EventMgr.obj
 0003:000041c8       ??_R3IEventMgr@@8          1001a1c8     EventMgr.obj
 0003:000041d8       ??_R2IEventMgr@@8          1001a1d8     EventMgr.obj
 0003:000041e0       ??_R3IHeightLaser@@8       1001a1e0     HeightLaser.obj
 0003:000041f0       ??_R2IHeightLaser@@8       1001a1f0     HeightLaser.obj
 0003:00004200       ??_R1A@?0A@EA@IHeightLaser@@8 1001a200     HeightLaser.obj
 0003:0000421c       ??_R3CHeightLaser@@8       1001a21c     HeightLaser.obj
 0003:0000422c       ??_R2CHeightLaser@@8       1001a22c     HeightLaser.obj
 0003:00004254       ??_R1A@?0A@EA@CHeightLaser@@8 1001a254     HeightLaser.obj
 0003:00004270       ??_R1CI@?0A@EA@?$CComCoClass@VCHeightLaser@@$1?CLSID_HeightLaser@@3U_GUID@@B@ATL@@8 1001a270     HeightLaser.obj
 0003:0000428c       ??_R3?$CComCoClass@VCHeightLaser@@$1?CLSID_HeightLaser@@3U_GUID@@B@ATL@@8 1001a28c     HeightLaser.obj
 0003:0000429c       ??_R2?$CComCoClass@VCHeightLaser@@$1?CLSID_HeightLaser@@3U_GUID@@B@ATL@@8 1001a29c     HeightLaser.obj
 0003:000042a4       ??_R1A@?0A@EA@?$CComCoClass@VCHeightLaser@@$1?CLSID_HeightLaser@@3U_GUID@@B@ATL@@8 1001a2a4     HeightLaser.obj
 0003:000042c0       ??_R1A@?0A@EA@?$IDispatchImpl@UIHeightLaser@@$1?IID_IHeightLaser@@3U_GUID@@B$1?LIBID_XRFNetLib@@3U3@B$00$0A@VCComTypeInfoHolder@ATL@@@ATL@@8 1001a2c0     HeightLaser.obj
 0003:000042dc       ??_R3?$IDispatchImpl@UIHeightLaser@@$1?IID_IHeightLaser@@3U_GUID@@B$1?LIBID_XRFNetLib@@3U3@B$00$0A@VCComTypeInfoHolder@ATL@@@ATL@@8 1001a2dc     HeightLaser.obj
 0003:000042ec       ??_R2?$IDispatchImpl@UIHeightLaser@@$1?IID_IHeightLaser@@3U_GUID@@B$1?LIBID_XRFNetLib@@3U3@B$00$0A@VCComTypeInfoHolder@ATL@@@ATL@@8 1001a2ec     HeightLaser.obj
 0003:00004300       ??_R4?$CComObject@VCHeightLaser@@@ATL@@6B?$IDispatchImpl@UIHeightLaser@@$1?IID_IHeightLaser@@3U_GUID@@B$1?LIBID_XRFNetLib@@3U3@B$00$0A@VCComTypeInfoHolder@ATL@@@1@@ 1001a300     HeightLaser.obj
 0003:00004314       ??_R3?$CComObject@VCHeightLaser@@@ATL@@8 1001a314     HeightLaser.obj
 0003:00004324       ??_R2?$CComObject@VCHeightLaser@@@ATL@@8 1001a324     HeightLaser.obj
 0003:00004350       ??_R1A@?0A@EA@?$CComObject@VCHeightLaser@@@ATL@@8 1001a350     HeightLaser.obj
 0003:0000436c       ??_R4?$CComObject@VCHeightLaser@@@ATL@@6BIEndPoint@NetLib@@@ 1001a36c     HeightLaser.obj
 0003:00004380       ??_R4?$CComAggObject@VCHeightLaser@@@ATL@@6B@ 1001a380     HeightLaser.obj
 0003:00004394       ??_R3?$CComAggObject@VCHeightLaser@@@ATL@@8 1001a394     HeightLaser.obj
 0003:000043a4       ??_R2?$CComAggObject@VCHeightLaser@@@ATL@@8 1001a3a4     HeightLaser.obj
 0003:000043b8       ??_R1A@?0A@EA@?$CComAggObject@VCHeightLaser@@@ATL@@8 1001a3b8     HeightLaser.obj
 0003:000043d4       ??_R4?$CComContainedObject@VCHeightLaser@@@ATL@@6B?$IDispatchImpl@UIHeightLaser@@$1?IID_IHeightLaser@@3U_GUID@@B$1?LIBID_XRFNetLib@@3U3@B$00$0A@VCComTypeInfoHolder@ATL@@@1@@ 1001a3d4     HeightLaser.obj
 0003:000043e8       ??_R3?$CComContainedObject@VCHeightLaser@@@ATL@@8 1001a3e8     HeightLaser.obj
 0003:000043f8       ??_R2?$CComContainedObject@VCHeightLaser@@@ATL@@8 1001a3f8     HeightLaser.obj
 0003:00004424       ??_R1A@?0A@EA@?$CComContainedObject@VCHeightLaser@@@ATL@@8 1001a424     HeightLaser.obj
 0003:00004440       ??_R4?$CComContainedObject@VCHeightLaser@@@ATL@@6BIEndPoint@NetLib@@@ 1001a440     HeightLaser.obj
 0003:00004454       ??_R3IHighVoltage@@8       1001a454     HighVoltage.obj
 0003:00004464       ??_R2IHighVoltage@@8       1001a464     HighVoltage.obj
 0003:00004474       ??_R1A@?0A@EA@IHighVoltage@@8 1001a474     HighVoltage.obj
 0003:00004490       ??_R3CHighVoltage@@8       1001a490     HighVoltage.obj
 0003:000044a0       ??_R2CHighVoltage@@8       1001a4a0     HighVoltage.obj
 0003:000044c8       ??_R1A@?0A@EA@CHighVoltage@@8 1001a4c8     HighVoltage.obj
 0003:000044e4       ??_R1CI@?0A@EA@?$CComCoClass@VCHighVoltage@@$1?CLSID_HighVoltage@@3U_GUID@@B@ATL@@8 1001a4e4     HighVoltage.obj
 0003:00004500       ??_R3?$CComCoClass@VCHighVoltage@@$1?CLSID_HighVoltage@@3U_GUID@@B@ATL@@8 1001a500     HighVoltage.obj
 0003:00004510       ??_R2?$CComCoClass@VCHighVoltage@@$1?CLSID_HighVoltage@@3U_GUID@@B@ATL@@8 1001a510     HighVoltage.obj
 0003:00004518       ??_R1A@?0A@EA@?$CComCoClass@VCHighVoltage@@$1?CLSID_HighVoltage@@3U_GUID@@B@ATL@@8 1001a518     HighVoltage.obj
 0003:00004534       ??_R1A@?0A@EA@?$IDispatchImpl@UIHighVoltage@@$1?IID_IHighVoltage@@3U_GUID@@B$1?LIBID_XRFNetLib@@3U3@B$00$0A@VCComTypeInfoHolder@ATL@@@ATL@@8 1001a534     HighVoltage.obj
 0003:00004550       ??_R3?$IDispatchImpl@UIHighVoltage@@$1?IID_IHighVoltage@@3U_GUID@@B$1?LIBID_XRFNetLib@@3U3@B$00$0A@VCComTypeInfoHolder@ATL@@@ATL@@8 1001a550     HighVoltage.obj
 0003:00004560       ??_R2?$IDispatchImpl@UIHighVoltage@@$1?IID_IHighVoltage@@3U_GUID@@B$1?LIBID_XRFNetLib@@3U3@B$00$0A@VCComTypeInfoHolder@ATL@@@ATL@@8 1001a560     HighVoltage.obj
 0003:00004574       ??_R4?$CComObject@VCHighVoltage@@@ATL@@6B?$IDispatchImpl@UIHighVoltage@@$1?IID_IHighVoltage@@3U_GUID@@B$1?LIBID_XRFNetLib@@3U3@B$00$0A@VCComTypeInfoHolder@ATL@@@1@@ 1001a574     HighVoltage.obj
 0003:00004588       ??_R3?$CComObject@VCHighVoltage@@@ATL@@8 1001a588     HighVoltage.obj
 0003:00004598       ??_R2?$CComObject@VCHighVoltage@@@ATL@@8 1001a598     HighVoltage.obj
 0003:000045c4       ??_R1A@?0A@EA@?$CComObject@VCHighVoltage@@@ATL@@8 1001a5c4     HighVoltage.obj
 0003:000045e0       ??_R4?$CComObject@VCHighVoltage@@@ATL@@6BIEndPoint@NetLib@@@ 1001a5e0     HighVoltage.obj
 0003:000045f4       ??_R4?$CComAggObject@VCHighVoltage@@@ATL@@6B@ 1001a5f4     HighVoltage.obj
 0003:00004608       ??_R3?$CComAggObject@VCHighVoltage@@@ATL@@8 1001a608     HighVoltage.obj
 0003:00004618       ??_R2?$CComAggObject@VCHighVoltage@@@ATL@@8 1001a618     HighVoltage.obj
 0003:0000462c       ??_R1A@?0A@EA@?$CComAggObject@VCHighVoltage@@@ATL@@8 1001a62c     HighVoltage.obj
 0003:00004648       ??_R4?$CComContainedObject@VCHighVoltage@@@ATL@@6B?$IDispatchImpl@UIHighVoltage@@$1?IID_IHighVoltage@@3U_GUID@@B$1?LIBID_XRFNetLib@@3U3@B$00$0A@VCComTypeInfoHolder@ATL@@@1@@ 1001a648     HighVoltage.obj
 0003:0000465c       ??_R3?$CComContainedObject@VCHighVoltage@@@ATL@@8 1001a65c     HighVoltage.obj
 0003:0000466c       ??_R2?$CComContainedObject@VCHighVoltage@@@ATL@@8 1001a66c     HighVoltage.obj
 0003:00004698       ??_R1A@?0A@EA@?$CComContainedObject@VCHighVoltage@@@ATL@@8 1001a698     HighVoltage.obj
 0003:000046b4       ??_R4?$CComContainedObject@VCHighVoltage@@@ATL@@6BIEndPoint@NetLib@@@ 1001a6b4     HighVoltage.obj
 0003:000046c8       ??_R3IMotorControl@@8      1001a6c8     MotorControl.obj
 0003:000046d8       ??_R2IMotorControl@@8      1001a6d8     MotorControl.obj
 0003:000046e8       ??_R1A@?0A@EA@IMotorControl@@8 1001a6e8     MotorControl.obj
 0003:00004704       ??_R3CMotorControl@@8      1001a704     MotorControl.obj
 0003:00004714       ??_R2CMotorControl@@8      1001a714     MotorControl.obj
 0003:0000473c       ??_R1A@?0A@EA@CMotorControl@@8 1001a73c     MotorControl.obj
 0003:00004758       ??_R1CI@?0A@EA@?$CComCoClass@VCMotorControl@@$1?CLSID_MotorControl@@3U_GUID@@B@ATL@@8 1001a758     MotorControl.obj
 0003:00004774       ??_R3?$CComCoClass@VCMotorControl@@$1?CLSID_MotorControl@@3U_GUID@@B@ATL@@8 1001a774     MotorControl.obj
 0003:00004784       ??_R2?$CComCoClass@VCMotorControl@@$1?CLSID_MotorControl@@3U_GUID@@B@ATL@@8 1001a784     MotorControl.obj
 0003:0000478c       ??_R1A@?0A@EA@?$CComCoClass@VCMotorControl@@$1?CLSID_MotorControl@@3U_GUID@@B@ATL@@8 1001a78c     MotorControl.obj
 0003:000047a8       ??_R1A@?0A@EA@?$IDispatchImpl@UIMotorControl@@$1?IID_IMotorControl@@3U_GUID@@B$1?LIBID_XRFNetLib@@3U3@B$00$0A@VCComTypeInfoHolder@ATL@@@ATL@@8 1001a7a8     MotorControl.obj
 0003:000047c4       ??_R3?$IDispatchImpl@UIMotorControl@@$1?IID_IMotorControl@@3U_GUID@@B$1?LIBID_XRFNetLib@@3U3@B$00$0A@VCComTypeInfoHolder@ATL@@@ATL@@8 1001a7c4     MotorControl.obj
 0003:000047d4       ??_R2?$IDispatchImpl@UIMotorControl@@$1?IID_IMotorControl@@3U_GUID@@B$1?LIBID_XRFNetLib@@3U3@B$00$0A@VCComTypeInfoHolder@ATL@@@ATL@@8 1001a7d4     MotorControl.obj
 0003:000047e8       ??_R4?$CComObject@VCMotorControl@@@ATL@@6B?$IDispatchImpl@UIMotorControl@@$1?IID_IMotorControl@@3U_GUID@@B$1?LIBID_XRFNetLib@@3U3@B$00$0A@VCComTypeInfoHolder@ATL@@@1@@ 1001a7e8     MotorControl.obj
 0003:000047fc       ??_R3?$CComObject@VCMotorControl@@@ATL@@8 1001a7fc     MotorControl.obj
 0003:0000480c       ??_R2?$CComObject@VCMotorControl@@@ATL@@8 1001a80c     MotorControl.obj
 0003:00004838       ??_R1A@?0A@EA@?$CComObject@VCMotorControl@@@ATL@@8 1001a838     MotorControl.obj
 0003:00004854       ??_R4?$CComObject@VCMotorControl@@@ATL@@6BIEndPoint@NetLib@@@ 1001a854     MotorControl.obj
 0003:00004868       ??_R4?$CComAggObject@VCMotorControl@@@ATL@@6B@ 1001a868     MotorControl.obj
 0003:0000487c       ??_R3?$CComAggObject@VCMotorControl@@@ATL@@8 1001a87c     MotorControl.obj
 0003:0000488c       ??_R2?$CComAggObject@VCMotorControl@@@ATL@@8 1001a88c     MotorControl.obj
 0003:000048a0       ??_R1A@?0A@EA@?$CComAggObject@VCMotorControl@@@ATL@@8 1001a8a0     MotorControl.obj
 0003:000048bc       ??_R4?$CComContainedObject@VCMotorControl@@@ATL@@6B?$IDispatchImpl@UIMotorControl@@$1?IID_IMotorControl@@3U_GUID@@B$1?LIBID_XRFNetLib@@3U3@B$00$0A@VCComTypeInfoHolder@ATL@@@1@@ 1001a8bc     MotorControl.obj
 0003:000048d0       ??_R3?$CComContainedObject@VCMotorControl@@@ATL@@8 1001a8d0     MotorControl.obj
 0003:000048e0       ??_R2?$CComContainedObject@VCMotorControl@@@ATL@@8 1001a8e0     MotorControl.obj
 0003:0000490c       ??_R1A@?0A@EA@?$CComContainedObject@VCMotorControl@@@ATL@@8 1001a90c     MotorControl.obj
 0003:00004928       ??_R4?$CComContainedObject@VCMotorControl@@@ATL@@6BIEndPoint@NetLib@@@ 1001a928     MotorControl.obj
 0003:0000493c       ??_R3ISurfaceSource@@8     1001a93c     SurfaceSource.obj
 0003:0000494c       ??_R2ISurfaceSource@@8     1001a94c     SurfaceSource.obj
 0003:0000495c       ??_R1A@?0A@EA@ISurfaceSource@@8 1001a95c     SurfaceSource.obj
 0003:00004978       ??_R3CSurfaceSource@@8     1001a978     SurfaceSource.obj
 0003:00004988       ??_R2CSurfaceSource@@8     1001a988     SurfaceSource.obj
 0003:000049b0       ??_R1A@?0A@EA@CSurfaceSource@@8 1001a9b0     SurfaceSource.obj
 0003:000049cc       ??_R1CI@?0A@EA@?$CComCoClass@VCSurfaceSource@@$1?CLSID_SurfaceSource@@3U_GUID@@B@ATL@@8 1001a9cc     SurfaceSource.obj
 0003:000049e8       ??_R3?$CComCoClass@VCSurfaceSource@@$1?CLSID_SurfaceSource@@3U_GUID@@B@ATL@@8 1001a9e8     SurfaceSource.obj
 0003:000049f8       ??_R2?$CComCoClass@VCSurfaceSource@@$1?CLSID_SurfaceSource@@3U_GUID@@B@ATL@@8 1001a9f8     SurfaceSource.obj
 0003:00004a00       ??_R1A@?0A@EA@?$CComCoClass@VCSurfaceSource@@$1?CLSID_SurfaceSource@@3U_GUID@@B@ATL@@8 1001aa00     SurfaceSource.obj
 0003:00004a1c       ??_R1A@?0A@EA@?$IDispatchImpl@UISurfaceSource@@$1?IID_ISurfaceSource@@3U_GUID@@B$1?LIBID_XRFNetLib@@3U3@B$00$0A@VCComTypeInfoHolder@ATL@@@ATL@@8 1001aa1c     SurfaceSource.obj
 0003:00004a38       ??_R3?$IDispatchImpl@UISurfaceSource@@$1?IID_ISurfaceSource@@3U_GUID@@B$1?LIBID_XRFNetLib@@3U3@B$00$0A@VCComTypeInfoHolder@ATL@@@ATL@@8 1001aa38     SurfaceSource.obj
 0003:00004a48       ??_R2?$IDispatchImpl@UISurfaceSource@@$1?IID_ISurfaceSource@@3U_GUID@@B$1?LIBID_XRFNetLib@@3U3@B$00$0A@VCComTypeInfoHolder@ATL@@@ATL@@8 1001aa48     SurfaceSource.obj
 0003:00004a5c       ??_R4?$CComObject@VCSurfaceSource@@@ATL@@6B?$IDispatchImpl@UISurfaceSource@@$1?IID_ISurfaceSource@@3U_GUID@@B$1?LIBID_XRFNetLib@@3U3@B$00$0A@VCComTypeInfoHolder@ATL@@@1@@ 1001aa5c     SurfaceSource.obj
 0003:00004a70       ??_R3?$CComObject@VCSurfaceSource@@@ATL@@8 1001aa70     SurfaceSource.obj
 0003:00004a80       ??_R2?$CComObject@VCSurfaceSource@@@ATL@@8 1001aa80     SurfaceSource.obj
 0003:00004aac       ??_R1A@?0A@EA@?$CComObject@VCSurfaceSource@@@ATL@@8 1001aaac     SurfaceSource.obj
 0003:00004ac8       ??_R4?$CComObject@VCSurfaceSource@@@ATL@@6BIEndPoint@NetLib@@@ 1001aac8     SurfaceSource.obj
 0003:00004adc       ??_R4?$CComAggObject@VCSurfaceSource@@@ATL@@6B@ 1001aadc     SurfaceSource.obj
 0003:00004af0       ??_R3?$CComAggObject@VCSurfaceSource@@@ATL@@8 1001aaf0     SurfaceSource.obj
 0003:00004b00       ??_R2?$CComAggObject@VCSurfaceSource@@@ATL@@8 1001ab00     SurfaceSource.obj
 0003:00004b14       ??_R1A@?0A@EA@?$CComAggObject@VCSurfaceSource@@@ATL@@8 1001ab14     SurfaceSource.obj
 0003:00004b30       ??_R4?$CComContainedObject@VCSurfaceSource@@@ATL@@6B?$IDispatchImpl@UISurfaceSource@@$1?IID_ISurfaceSource@@3U_GUID@@B$1?LIBID_XRFNetLib@@3U3@B$00$0A@VCComTypeInfoHolder@ATL@@@1@@ 1001ab30     SurfaceSource.obj
 0003:00004b44       ??_R3?$CComContainedObject@VCSurfaceSource@@@ATL@@8 1001ab44     SurfaceSource.obj
 0003:00004b54       ??_R2?$CComContainedObject@VCSurfaceSource@@@ATL@@8 1001ab54     SurfaceSource.obj
 0003:00004b80       ??_R1A@?0A@EA@?$CComContainedObject@VCSurfaceSource@@@ATL@@8 1001ab80     SurfaceSource.obj
 0003:00004b9c       ??_R4?$CComContainedObject@VCSurfaceSource@@@ATL@@6BIEndPoint@NetLib@@@ 1001ab9c     SurfaceSource.obj
 0003:00004bb0       ??_R3IVacuumPump@@8        1001abb0     VacuumPump.obj
 0003:00004bc0       ??_R2IVacuumPump@@8        1001abc0     VacuumPump.obj
 0003:00004bd0       ??_R1A@?0A@EA@IVacuumPump@@8 1001abd0     VacuumPump.obj
 0003:00004bec       ??_R3CVacuumPump@@8        1001abec     VacuumPump.obj
 0003:00004bfc       ??_R2CVacuumPump@@8        1001abfc     VacuumPump.obj
 0003:00004c24       ??_R1A@?0A@EA@CVacuumPump@@8 1001ac24     VacuumPump.obj
 0003:00004c40       ??_R1CI@?0A@EA@?$CComCoClass@VCVacuumPump@@$1?CLSID_VacuumPump@@3U_GUID@@B@ATL@@8 1001ac40     VacuumPump.obj
 0003:00004c5c       ??_R3?$CComCoClass@VCVacuumPump@@$1?CLSID_VacuumPump@@3U_GUID@@B@ATL@@8 1001ac5c     VacuumPump.obj
 0003:00004c6c       ??_R2?$CComCoClass@VCVacuumPump@@$1?CLSID_VacuumPump@@3U_GUID@@B@ATL@@8 1001ac6c     VacuumPump.obj
 0003:00004c74       ??_R1A@?0A@EA@?$CComCoClass@VCVacuumPump@@$1?CLSID_VacuumPump@@3U_GUID@@B@ATL@@8 1001ac74     VacuumPump.obj
 0003:00004c90       ??_R1A@?0A@EA@?$IDispatchImpl@UIVacuumPump@@$1?IID_IVacuumPump@@3U_GUID@@B$1?LIBID_XRFNetLib@@3U3@B$00$0A@VCComTypeInfoHolder@ATL@@@ATL@@8 1001ac90     VacuumPump.obj
 0003:00004cac       ??_R3?$IDispatchImpl@UIVacuumPump@@$1?IID_IVacuumPump@@3U_GUID@@B$1?LIBID_XRFNetLib@@3U3@B$00$0A@VCComTypeInfoHolder@ATL@@@ATL@@8 1001acac     VacuumPump.obj
 0003:00004cbc       ??_R2?$IDispatchImpl@UIVacuumPump@@$1?IID_IVacuumPump@@3U_GUID@@B$1?LIBID_XRFNetLib@@3U3@B$00$0A@VCComTypeInfoHolder@ATL@@@ATL@@8 1001acbc     VacuumPump.obj
 0003:00004cd0       ??_R4?$CComObject@VCVacuumPump@@@ATL@@6B?$IDispatchImpl@UIVacuumPump@@$1?IID_IVacuumPump@@3U_GUID@@B$1?LIBID_XRFNetLib@@3U3@B$00$0A@VCComTypeInfoHolder@ATL@@@1@@ 1001acd0     VacuumPump.obj
 0003:00004ce4       ??_R3?$CComObject@VCVacuumPump@@@ATL@@8 1001ace4     VacuumPump.obj
 0003:00004cf4       ??_R2?$CComObject@VCVacuumPump@@@ATL@@8 1001acf4     VacuumPump.obj
 0003:00004d20       ??_R1A@?0A@EA@?$CComObject@VCVacuumPump@@@ATL@@8 1001ad20     VacuumPump.obj
 0003:00004d3c       ??_R4?$CComObject@VCVacuumPump@@@ATL@@6BIEndPoint@NetLib@@@ 1001ad3c     VacuumPump.obj
 0003:00004d50       ??_R4?$CComAggObject@VCVacuumPump@@@ATL@@6B@ 1001ad50     VacuumPump.obj
 0003:00004d64       ??_R3?$CComAggObject@VCVacuumPump@@@ATL@@8 1001ad64     VacuumPump.obj
 0003:00004d74       ??_R2?$CComAggObject@VCVacuumPump@@@ATL@@8 1001ad74     VacuumPump.obj
 0003:00004d88       ??_R1A@?0A@EA@?$CComAggObject@VCVacuumPump@@@ATL@@8 1001ad88     VacuumPump.obj
 0003:00004da4       ??_R4?$CComContainedObject@VCVacuumPump@@@ATL@@6B?$IDispatchImpl@UIVacuumPump@@$1?IID_IVacuumPump@@3U_GUID@@B$1?LIBID_XRFNetLib@@3U3@B$00$0A@VCComTypeInfoHolder@ATL@@@1@@ 1001ada4     VacuumPump.obj
 0003:00004db8       ??_R3?$CComContainedObject@VCVacuumPump@@@ATL@@8 1001adb8     VacuumPump.obj
 0003:00004dc8       ??_R2?$CComContainedObject@VCVacuumPump@@@ATL@@8 1001adc8     VacuumPump.obj
 0003:00004df4       ??_R1A@?0A@EA@?$CComContainedObject@VCVacuumPump@@@ATL@@8 1001adf4     VacuumPump.obj
 0003:00004e10       ??_R4?$CComContainedObject@VCVacuumPump@@@ATL@@6BIEndPoint@NetLib@@@ 1001ae10     VacuumPump.obj
 0003:00004e24       ??_R4INetKernelCallback@NetLib@@6B@ 1001ae24     XRFNetwork.obj
 0003:00004e38       ??_R3INetKernelCallback@NetLib@@8 1001ae38     XRFNetwork.obj
 0003:00004e48       ??_R2INetKernelCallback@NetLib@@8 1001ae48     XRFNetwork.obj
 0003:00004e50       ??_R1A@?0A@EA@INetKernelCallback@NetLib@@8 1001ae50     XRFNetwork.obj
 0003:00004e6c       ??_R3IXRFNetwork@@8        1001ae6c     XRFNetwork.obj
 0003:00004e7c       ??_R2IXRFNetwork@@8        1001ae7c     XRFNetwork.obj
 0003:00004e8c       ??_R1A@?0A@EA@IXRFNetwork@@8 1001ae8c     XRFNetwork.obj
 0003:00004ea8       ??_R3CXRFNetwork@@8        1001aea8     XRFNetwork.obj
 0003:00004eb8       ??_R2CXRFNetwork@@8        1001aeb8     XRFNetwork.obj
 0003:00004ee8       ??_R1A@?0A@EA@CXRFNetwork@@8 1001aee8     XRFNetwork.obj
 0003:00004f04       ??_R1BA@?0A@EA@?$CComObjectRootEx@VCComMultiThreadModel@ATL@@@ATL@@8 1001af04     XRFNetwork.obj
 0003:00004f20       ??_R1BA@?0A@EA@CComObjectRootBase@ATL@@8 1001af20     XRFNetwork.obj
 0003:00004f3c       ??_R1DA@?0A@EA@?$CComCoClass@VCXRFNetwork@@$1?CLSID_XRFNetwork@@3U_GUID@@B@ATL@@8 1001af3c     XRFNetwork.obj
 0003:00004f58       ??_R3?$CComCoClass@VCXRFNetwork@@$1?CLSID_XRFNetwork@@3U_GUID@@B@ATL@@8 1001af58     XRFNetwork.obj
 0003:00004f68       ??_R2?$CComCoClass@VCXRFNetwork@@$1?CLSID_XRFNetwork@@3U_GUID@@B@ATL@@8 1001af68     XRFNetwork.obj
 0003:00004f70       ??_R1A@?0A@EA@?$CComCoClass@VCXRFNetwork@@$1?CLSID_XRFNetwork@@3U_GUID@@B@ATL@@8 1001af70     XRFNetwork.obj
 0003:00004f8c       ??_R1A@?0A@EA@?$IDispatchImpl@UIXRFNetwork@@$1?IID_IXRFNetwork@@3U_GUID@@B$1?LIBID_XRFNetLib@@3U3@B$00$0A@VCComTypeInfoHolder@ATL@@@ATL@@8 1001af8c     XRFNetwork.obj
 0003:00004fa8       ??_R3?$IDispatchImpl@UIXRFNetwork@@$1?IID_IXRFNetwork@@3U_GUID@@B$1?LIBID_XRFNetLib@@3U3@B$00$0A@VCComTypeInfoHolder@ATL@@@ATL@@8 1001afa8     XRFNetwork.obj
 0003:00004fb8       ??_R2?$IDispatchImpl@UIXRFNetwork@@$1?IID_IXRFNetwork@@3U_GUID@@B$1?LIBID_XRFNetLib@@3U3@B$00$0A@VCComTypeInfoHolder@ATL@@@ATL@@8 1001afb8     XRFNetwork.obj
 0003:00004fcc       ??_R13?0A@EA@INetKernelCallback@NetLib@@8 1001afcc     XRFNetwork.obj
 0003:00004fe8       ??_R17?0A@EA@IEndPoint@NetLib@@8 1001afe8     XRFNetwork.obj
 0003:00005004       ??_R1M@?0A@EA@IEventListener@@8 1001b004     XRFNetwork.obj
 0003:00005020       ??_R4?$CComObject@VCXRFNetwork@@@ATL@@6B?$IDispatchImpl@UIXRFNetwork@@$1?IID_IXRFNetwork@@3U_GUID@@B$1?LIBID_XRFNetLib@@3U3@B$00$0A@VCComTypeInfoHolder@ATL@@@1@@ 1001b020     XRFNetwork.obj
 0003:00005034       ??_R3?$CComObject@VCXRFNetwork@@@ATL@@8 1001b034     XRFNetwork.obj
 0003:00005044       ??_R2?$CComObject@VCXRFNetwork@@@ATL@@8 1001b044     XRFNetwork.obj
 0003:00005078       ??_R1A@?0A@EA@?$CComObject@VCXRFNetwork@@@ATL@@8 1001b078     XRFNetwork.obj
 0003:00005094       ??_R4?$CComObject@VCXRFNetwork@@@ATL@@6BINetKernelCallback@NetLib@@@ 1001b094     XRFNetwork.obj
 0003:000050a8       ??_R4?$CComObject@VCXRFNetwork@@@ATL@@6BIEndPoint@NetLib@@@ 1001b0a8     XRFNetwork.obj
 0003:000050bc       ??_R4?$CComObject@VCXRFNetwork@@@ATL@@6BIEventListener@@@ 1001b0bc     XRFNetwork.obj
 0003:000050d0       ??_R4?$CComAggObject@VCXRFNetwork@@@ATL@@6B@ 1001b0d0     XRFNetwork.obj
 0003:000050e4       ??_R3?$CComAggObject@VCXRFNetwork@@@ATL@@8 1001b0e4     XRFNetwork.obj
 0003:000050f4       ??_R2?$CComAggObject@VCXRFNetwork@@@ATL@@8 1001b0f4     XRFNetwork.obj
 0003:00005108       ??_R1A@?0A@EA@?$CComAggObject@VCXRFNetwork@@@ATL@@8 1001b108     XRFNetwork.obj
 0003:00005124       ??_R4?$CComContainedObject@VCXRFNetwork@@@ATL@@6B?$IDispatchImpl@UIXRFNetwork@@$1?IID_IXRFNetwork@@3U_GUID@@B$1?LIBID_XRFNetLib@@3U3@B$00$0A@VCComTypeInfoHolder@ATL@@@1@@ 1001b124     XRFNetwork.obj
 0003:00005138       ??_R3?$CComContainedObject@VCXRFNetwork@@@ATL@@8 1001b138     XRFNetwork.obj
 0003:00005148       ??_R2?$CComContainedObject@VCXRFNetwork@@@ATL@@8 1001b148     XRFNetwork.obj
 0003:0000517c       ??_R1A@?0A@EA@?$CComContainedObject@VCXRFNetwork@@@ATL@@8 1001b17c     XRFNetwork.obj
 0003:00005198       ??_R4?$CComContainedObject@VCXRFNetwork@@@ATL@@6BINetKernelCallback@NetLib@@@ 1001b198     XRFNetwork.obj
 0003:000051ac       ??_R4?$CComContainedObject@VCXRFNetwork@@@ATL@@6BIEndPoint@NetLib@@@ 1001b1ac     XRFNetwork.obj
 0003:000051c0       ??_R4?$CComContainedObject@VCXRFNetwork@@@ATL@@6BIEventListener@@@ 1001b1c0     XRFNetwork.obj
 0003:000051d4       ??_R3IXRFRayTube@@8        1001b1d4     XRFRayTube.obj
 0003:000051e4       ??_R2IXRFRayTube@@8        1001b1e4     XRFRayTube.obj
 0003:000051f4       ??_R1A@?0A@EA@IXRFRayTube@@8 1001b1f4     XRFRayTube.obj
 0003:00005210       ??_R3CXRFRayTube@@8        1001b210     XRFRayTube.obj
 0003:00005220       ??_R2CXRFRayTube@@8        1001b220     XRFRayTube.obj
 0003:00005248       ??_R1A@?0A@EA@CXRFRayTube@@8 1001b248     XRFRayTube.obj
 0003:00005264       ??_R1CI@?0A@EA@?$CComCoClass@VCXRFRayTube@@$1?CLSID_XRFRay@@3U_GUID@@B@ATL@@8 1001b264     XRFRayTube.obj
 0003:00005280       ??_R3?$CComCoClass@VCXRFRayTube@@$1?CLSID_XRFRay@@3U_GUID@@B@ATL@@8 1001b280     XRFRayTube.obj
 0003:00005290       ??_R2?$CComCoClass@VCXRFRayTube@@$1?CLSID_XRFRay@@3U_GUID@@B@ATL@@8 1001b290     XRFRayTube.obj
 0003:00005298       ??_R1A@?0A@EA@?$CComCoClass@VCXRFRayTube@@$1?CLSID_XRFRay@@3U_GUID@@B@ATL@@8 1001b298     XRFRayTube.obj
 0003:000052b4       ??_R1A@?0A@EA@?$IDispatchImpl@UIXRFRayTube@@$1?IID_IXRFRayTube@@3U_GUID@@B$1?LIBID_XRFNetLib@@3U3@B$00$0A@VCComTypeInfoHolder@ATL@@@ATL@@8 1001b2b4     XRFRayTube.obj
 0003:000052d0       ??_R3?$IDispatchImpl@UIXRFRayTube@@$1?IID_IXRFRayTube@@3U_GUID@@B$1?LIBID_XRFNetLib@@3U3@B$00$0A@VCComTypeInfoHolder@ATL@@@ATL@@8 1001b2d0     XRFRayTube.obj
 0003:000052e0       ??_R2?$IDispatchImpl@UIXRFRayTube@@$1?IID_IXRFRayTube@@3U_GUID@@B$1?LIBID_XRFNetLib@@3U3@B$00$0A@VCComTypeInfoHolder@ATL@@@ATL@@8 1001b2e0     XRFRayTube.obj
 0003:000052f4       ??_R4?$CComObject@VCXRFRayTube@@@ATL@@6B?$IDispatchImpl@UIXRFRayTube@@$1?IID_IXRFRayTube@@3U_GUID@@B$1?LIBID_XRFNetLib@@3U3@B$00$0A@VCComTypeInfoHolder@ATL@@@1@@ 1001b2f4     XRFRayTube.obj
 0003:00005308       ??_R3?$CComObject@VCXRFRayTube@@@ATL@@8 1001b308     XRFRayTube.obj
 0003:00005318       ??_R2?$CComObject@VCXRFRayTube@@@ATL@@8 1001b318     XRFRayTube.obj
 0003:00005344       ??_R1A@?0A@EA@?$CComObject@VCXRFRayTube@@@ATL@@8 1001b344     XRFRayTube.obj
 0003:00005360       ??_R4?$CComObject@VCXRFRayTube@@@ATL@@6BIEndPoint@NetLib@@@ 1001b360     XRFRayTube.obj
 0003:00005374       ??_R4?$CComAggObject@VCXRFRayTube@@@ATL@@6B@ 1001b374     XRFRayTube.obj
 0003:00005388       ??_R3?$CComAggObject@VCXRFRayTube@@@ATL@@8 1001b388     XRFRayTube.obj
 0003:00005398       ??_R2?$CComAggObject@VCXRFRayTube@@@ATL@@8 1001b398     XRFRayTube.obj
 0003:000053ac       ??_R1A@?0A@EA@?$CComAggObject@VCXRFRayTube@@@ATL@@8 1001b3ac     XRFRayTube.obj
 0003:000053c8       ??_R4?$CComContainedObject@VCXRFRayTube@@@ATL@@6B?$IDispatchImpl@UIXRFRayTube@@$1?IID_IXRFRayTube@@3U_GUID@@B$1?LIBID_XRFNetLib@@3U3@B$00$0A@VCComTypeInfoHolder@ATL@@@1@@ 1001b3c8     XRFRayTube.obj
 0003:000053dc       ??_R3?$CComContainedObject@VCXRFRayTube@@@ATL@@8 1001b3dc     XRFRayTube.obj
 0003:000053ec       ??_R2?$CComContainedObject@VCXRFRayTube@@@ATL@@8 1001b3ec     XRFRayTube.obj
 0003:00005418       ??_R1A@?0A@EA@?$CComContainedObject@VCXRFRayTube@@@ATL@@8 1001b418     XRFRayTube.obj
 0003:00005434       ??_R4?$CComContainedObject@VCXRFRayTube@@@ATL@@6BIEndPoint@NetLib@@@ 1001b434     XRFRayTube.obj
 0003:00005448       ??_R4type_info@@6B@        1001b448     MSVCRT:std_type_info_static.obj
 0003:0000545c       ??_R3type_info@@8          1001b45c     MSVCRT:std_type_info_static.obj
 0003:0000546c       ??_R2type_info@@8          1001b46c     MSVCRT:std_type_info_static.obj
 0003:00005474       ??_R1A@?0A@EA@type_info@@8 1001b474     MSVCRT:std_type_info_static.obj
 0003:00005490       ??_R4exception@std@@6B@    1001b490     MSVCRT:throw_bad_alloc.obj
 0003:000054a4       ??_R3exception@std@@8      1001b4a4     MSVCRT:throw_bad_alloc.obj
 0003:000054b4       ??_R2exception@std@@8      1001b4b4     MSVCRT:throw_bad_alloc.obj
 0003:000054bc       ??_R1A@?0A@EA@exception@std@@8 1001b4bc     MSVCRT:throw_bad_alloc.obj
 0003:000054d8       ??_R4bad_alloc@std@@6B@    1001b4d8     MSVCRT:throw_bad_alloc.obj
 0003:000054ec       ??_R3bad_alloc@std@@8      1001b4ec     MSVCRT:throw_bad_alloc.obj
 0003:000054fc       ??_R2bad_alloc@std@@8      1001b4fc     MSVCRT:throw_bad_alloc.obj
 0003:00005508       ??_R1A@?0A@EA@bad_alloc@std@@8 1001b508     MSVCRT:throw_bad_alloc.obj
 0003:00005524       ??_R4bad_array_new_length@std@@6B@ 1001b524     MSVCRT:throw_bad_alloc.obj
 0003:00005538       ??_R3bad_array_new_length@std@@8 1001b538     MSVCRT:throw_bad_alloc.obj
 0003:00005548       ??_R2bad_array_new_length@std@@8 1001b548     MSVCRT:throw_bad_alloc.obj
 0003:00005558       ??_R1A@?0A@EA@bad_array_new_length@std@@8 1001b558     MSVCRT:throw_bad_alloc.obj
 0003:00005580       ___safe_se_handler_table   1001b580     <linker-defined>
 0003:00005a94       ___rtc_iaa                 1001ba94     MSVCRT:_initsect_.obj
 0003:00005a98       ___rtc_izz                 1001ba98     MSVCRT:_initsect_.obj
 0003:00005a9c       ___rtc_taa                 1001ba9c     MSVCRT:_initsect_.obj
 0003:00005aa0       ___rtc_tzz                 1001baa0     MSVCRT:_initsect_.obj
 0003:00005fdc       __TI1?AVCAtlException@ATL@@ 1001bfdc     Apparatus.obj
 0003:00005fec       __CTA1?AVCAtlException@ATL@@ 1001bfec     Apparatus.obj
 0003:00005ff4       __CT??_R0?AVCAtlException@ATL@@@84 1001bff4     Apparatus.obj
 0003:00006fe4       __TI2?AVbad_alloc@std@@    1001cfe4     MSVCRT:throw_bad_alloc.obj
 0003:00006ff4       __CTA2?AVbad_alloc@std@@   1001cff4     MSVCRT:throw_bad_alloc.obj
 0003:00007000       __CT??_R0?AVbad_alloc@std@@@8??0bad_alloc@std@@QAE@ABV01@@Z12 1001d000     MSVCRT:throw_bad_alloc.obj
 0003:0000701c       __CT??_R0?AVexception@std@@@8??0exception@std@@QAE@ABV01@@Z12 1001d01c     MSVCRT:throw_bad_alloc.obj
 0003:00007038       __TI3?AVbad_array_new_length@std@@ 1001d038     MSVCRT:throw_bad_alloc.obj
 0003:00007048       __CTA3?AVbad_array_new_length@std@@ 1001d048     MSVCRT:throw_bad_alloc.obj
 0003:00007058       __CT??_R0?AVbad_array_new_length@std@@@8??0bad_array_new_length@std@@QAE@ABV01@@Z12 1001d058     MSVCRT:throw_bad_alloc.obj
 0003:00007074       ___pobjMapEntryFirst       1001d074     dllmain.obj
 0003:00007078       ___pobjMap_CApparatus      1001d078     Apparatus.obj
 0003:0000707c       ___pobjMap_CDetectData     1001d07c     DetectData.obj
 0003:00007080       ___pobjMap_CDetector       1001d080     Detector.obj
 0003:00007084       ___pobjMap_CElectromagnet  1001d084     Electromagnet.obj
 0003:00007088       ___pobjMap_CHeightLaser    1001d088     HeightLaser.obj
 0003:0000708c       ___pobjMap_CHighVoltage    1001d08c     HighVoltage.obj
 0003:00007090       ___pobjMap_CMotorControl   1001d090     MotorControl.obj
 0003:00007094       ___pobjMap_CSurfaceSource  1001d094     SurfaceSource.obj
 0003:00007098       ___pobjMap_CVacuumPump     1001d098     VacuumPump.obj
 0003:0000709c       ___pobjMap_CXRFNetwork     1001d09c     XRFNetwork.obj
 0003:000070a0       ___pobjMap_CXRFRayTube     1001d0a0     XRFRayTube.obj
 0003:000070a4       ___pobjMapEntryLast        1001d0a4     dllmain.obj
 0003:00007168       __IMPORT_DESCRIPTOR_KERNEL32 1001d168     kernel32:KERNEL32.dll
 0003:0000717c       __IMPORT_DESCRIPTOR_USER32 1001d17c     user32:USER32.dll
 0003:00007190       __IMPORT_DESCRIPTOR_ADVAPI32 1001d190     advapi32:ADVAPI32.dll
 0003:000071a4       __IMPORT_DESCRIPTOR_ole32  1001d1a4     ole32:ole32.dll
 0003:000071b8       __IMPORT_DESCRIPTOR_OLEAUT32 1001d1b8     oleaut32:OLEAUT32.dll
 0003:000071cc       __IMPORT_DESCRIPTOR_MSVCP140 1001d1cc     msvcprt:MSVCP140.dll
 0003:000071e0       __IMPORT_DESCRIPTOR_WS2_32 1001d1e0     Ws2_32:WS2_32.dll
 0003:000071f4       __IMPORT_DESCRIPTOR_RPCRT4 1001d1f4     rpcrt4:RPCRT4.dll
 0003:00007208       __IMPORT_DESCRIPTOR_VCRUNTIME140 1001d208     vcruntime:VCRUNTIME140.dll
 0003:0000721c       __IMPORT_DESCRIPTOR_api-ms-win-crt-runtime-l1-1-0 1001d21c     ucrt:api-ms-win-crt-runtime-l1-1-0.dll
 0003:00007230       __IMPORT_DESCRIPTOR_api-ms-win-crt-heap-l1-1-0 1001d230     ucrt:api-ms-win-crt-heap-l1-1-0.dll
 0003:00007244       __IMPORT_DESCRIPTOR_api-ms-win-crt-string-l1-1-0 1001d244     ucrt:api-ms-win-crt-string-l1-1-0.dll
 0003:00007258       __IMPORT_DESCRIPTOR_api-ms-win-crt-stdio-l1-1-0 1001d258     ucrt:api-ms-win-crt-stdio-l1-1-0.dll
 0003:0000726c       __IMPORT_DESCRIPTOR_api-ms-win-crt-math-l1-1-0 1001d26c     ucrt:api-ms-win-crt-math-l1-1-0.dll
 0003:00007280       __NULL_IMPORT_DESCRIPTOR   1001d280     kernel32:KERNEL32.dll
 0004:00000000       ?_tih@?$IDispatchImpl@UIApparatus@@$1?IID_IApparatus@@3U_GUID@@B$1?LIBID_XRFNetLib@@3U3@B$00$0A@VCComTypeInfoHolder@ATL@@@ATL@@1VCComTypeInfoHolder@2@A 1001f000     Apparatus.obj
 0004:0000001c       ?_tih@?$IDispatchImpl@UIDetectData@@$1?IID_IDetectData@@3U_GUID@@B$1?LIBID_XRFNetLib@@3U3@B$00$0A@VCComTypeInfoHolder@ATL@@@ATL@@1VCComTypeInfoHolder@2@A 1001f01c     DetectData.obj
 0004:00000038       ?_tih@?$IDispatchImpl@UIDetector@@$1?IID_IDetector@@3U_GUID@@B$1?LIBID_XRFNetLib@@3U3@B$00$0A@VCComTypeInfoHolder@ATL@@@ATL@@1VCComTypeInfoHolder@2@A 1001f038     Detector.obj
 0004:00000058       _aProxyFileList            1001f058     dlldatax.obj
 0004:00000060       __IXRFRayTubeProxyVtbl     1001f060     dlldatax.obj
 0004:000000f4       __IXRFRayTubeStubVtbl      1001f0f4     dlldatax.obj
 0004:0000012c       __IHighVoltageProxyVtbl    1001f12c     dlldatax.obj
 0004:00000150       __IHighVoltageStubVtbl     1001f150     dlldatax.obj
 0004:00000188       __IVacuumPumpProxyVtbl     1001f188     dlldatax.obj
 0004:000001ac       __IVacuumPumpStubVtbl      1001f1ac     dlldatax.obj
 0004:000001e4       __IMotorControlProxyVtbl   1001f1e4     dlldatax.obj
 0004:00000208       __IMotorControlStubVtbl    1001f208     dlldatax.obj
 0004:00000240       __IElectromagnetProxyVtbl  1001f240     dlldatax.obj
 0004:0000026c       __IElectromagnetStubVtbl   1001f26c     dlldatax.obj
 0004:000002a4       __IHeightLaserProxyVtbl    1001f2a4     dlldatax.obj
 0004:000002c8       __IHeightLaserStubVtbl     1001f2c8     dlldatax.obj
 0004:00000300       __ISurfaceSourceProxyVtbl  1001f300     dlldatax.obj
 0004:00000324       __ISurfaceSourceStubVtbl   1001f324     dlldatax.obj
 0004:0000035c       __IDetectDataProxyVtbl     1001f35c     dlldatax.obj
 0004:0000038c       __IDetectDataStubVtbl      1001f38c     dlldatax.obj
 0004:000003c4       __IDetectorCallBackProxyVtbl 1001f3c4     dlldatax.obj
 0004:000003dc       __IApparatusProxyVtbl      1001f3dc     dlldatax.obj
 0004:00000408       __IDetectorProxyVtbl       1001f408     dlldatax.obj
 0004:0000044c       __IDetectorStubVtbl        1001f44c     dlldatax.obj
 0004:00000484       __INetworkCallBackProxyVtbl 1001f484     dlldatax.obj
 0004:000004ac       __IApparatusStubVtbl       1001f4ac     dlldatax.obj
 0004:000004e8       __IXRFNetworkProxyVtbl     1001f4e8     dlldatax.obj
 0004:00000570       __IXRFNetworkStubVtbl      1001f570     dlldatax.obj
 0004:000005a8       ?_AtlComModule@ATL@@3VCAtlComModule@1@A 1001f5a8     dllmain.obj
 0004:000005d0       ?_tih@?$IDispatchImpl@UIElectromagnet@@$1?IID_IElectromagnet@@3U_GUID@@B$1?LIBID_XRFNetLib@@3U3@B$00$0A@VCComTypeInfoHolder@ATL@@@ATL@@1VCComTypeInfoHolder@2@A 1001f5d0     Electromagnet.obj
 0004:000005ec       ?_tih@?$IDispatchImpl@UIHeightLaser@@$1?IID_IHeightLaser@@3U_GUID@@B$1?LIBID_XRFNetLib@@3U3@B$00$0A@VCComTypeInfoHolder@ATL@@@ATL@@1VCComTypeInfoHolder@2@A 1001f5ec     HeightLaser.obj
 0004:00000608       ?_tih@?$IDispatchImpl@UIHighVoltage@@$1?IID_IHighVoltage@@3U_GUID@@B$1?LIBID_XRFNetLib@@3U3@B$00$0A@VCComTypeInfoHolder@ATL@@@ATL@@1VCComTypeInfoHolder@2@A 1001f608     HighVoltage.obj
 0004:00000624       ?_tih@?$IDispatchImpl@UIMotorControl@@$1?IID_IMotorControl@@3U_GUID@@B$1?LIBID_XRFNetLib@@3U3@B$00$0A@VCComTypeInfoHolder@ATL@@@ATL@@1VCComTypeInfoHolder@2@A 1001f624     MotorControl.obj
 0004:00000640       ?_tih@?$IDispatchImpl@UISurfaceSource@@$1?IID_ISurfaceSource@@3U_GUID@@B$1?LIBID_XRFNetLib@@3U3@B$00$0A@VCComTypeInfoHolder@ATL@@@ATL@@1VCComTypeInfoHolder@2@A 1001f640     SurfaceSource.obj
 0004:0000065c       ?_tih@?$IDispatchImpl@UIVacuumPump@@$1?IID_IVacuumPump@@3U_GUID@@B$1?LIBID_XRFNetLib@@3U3@B$00$0A@VCComTypeInfoHolder@ATL@@@ATL@@1VCComTypeInfoHolder@2@A 1001f65c     VacuumPump.obj
 0004:00000678       ?_tih@?$IDispatchImpl@UIXRFNetwork@@$1?IID_IXRFNetwork@@3U_GUID@@B$1?LIBID_XRFNetLib@@3U3@B$00$0A@VCComTypeInfoHolder@ATL@@@ATL@@1VCComTypeInfoHolder@2@A 1001f678     XRFNetwork.obj
 0004:00000694       ?_tih@?$IDispatchImpl@UIXRFRayTube@@$1?IID_IXRFRayTube@@3U_GUID@@B$1?LIBID_XRFNetLib@@3U3@B$00$0A@VCComTypeInfoHolder@ATL@@@ATL@@1VCComTypeInfoHolder@2@A 1001f694     XRFRayTube.obj
 0004:000006b0       __Init_global_epoch        1001f6b0     MSVCRT:thread_safe_statics.obj
 0004:000006c0       ___security_cookie_complement 1001f6c0     MSVCRT:gs_cookie.obj
 0004:000006c4       ___security_cookie         1001f6c4     MSVCRT:gs_cookie.obj
 0004:000006c8       __fltused                  1001f6c8     MSVCRT:fltused.obj
 0004:000006cc       ___scrt_native_dllmain_reason 1001f6cc     MSVCRT:utility.obj
 0004:000006d0       ___isa_enabled             1001f6d0     MSVCRT:_cpu_disp_.obj
 0004:000006d4       ___scrt_ucrt_dll_is_in_use 1001f6d4     MSVCRT:ucrt_stubs.obj
 0004:000006d8       ??_R0?AVCAtlException@ATL@@@8 1001f6d8     Apparatus.obj
 0004:000006f8       ??_R0?AUIUnknown@@@8       1001f6f8     Apparatus.obj
 0004:00000710       ??_R0?AUIDispatch@@@8      1001f710     Apparatus.obj
 0004:00000728       ??_R0?AUIRegistrarBase@@@8 1001f728     Apparatus.obj
 0004:00000748       ??_R0?AVCRegObject@ATL@@@8 1001f748     Apparatus.obj
 0004:00000768       ??_R0?AVCComClassFactory@ATL@@@8 1001f768     Apparatus.obj
 0004:0000078c       ??_R0?AUIClassFactory@@@8  1001f78c     Apparatus.obj
 0004:000007a8       ??_R0?AV?$CComObjectRootEx@VCComMultiThreadModel@ATL@@@ATL@@@8 1001f7a8     Apparatus.obj
 0004:000007ec       ??_R0?AVCComObjectRootBase@ATL@@@8 1001f7ec     Apparatus.obj
 0004:00000814       ??_R0?AV?$CComObjectCached@VCComClassFactory@ATL@@@ATL@@@8 1001f814     Apparatus.obj
 0004:00000854       ??_R0?AVIEndPoint@NetLib@@@8 1001f854     Apparatus.obj
 0004:00000874       ??_R0?AUIApparatus@@@8     1001f874     Apparatus.obj
 0004:00000890       ??_R0?AVCApparatus@@@8     1001f890     Apparatus.obj
 0004:000008b0       ??_R0?AV?$CComCoClass@VCApparatus@@$1?CLSID_Apparatus@@3U_GUID@@B@ATL@@@8 1001f8b0     Apparatus.obj
 0004:00000900       ??_R0?AV?$IDispatchImpl@UIApparatus@@$1?IID_IApparatus@@3U_GUID@@B$1?LIBID_XRFNetLib@@3U3@B$00$0A@VCComTypeInfoHolder@ATL@@@ATL@@@8 1001f900     Apparatus.obj
 0004:00000988       ??_R0?AV?$CComObject@VCApparatus@@@ATL@@@8 1001f988     Apparatus.obj
 0004:000009b8       ??_R0?AV?$CComAggObject@VCApparatus@@@ATL@@@8 1001f9b8     Apparatus.obj
 0004:000009e8       ??_R0?AV?$CComObjectRootEx@VCComMultiThreadModelNoCS@ATL@@@ATL@@@8 1001f9e8     Apparatus.obj
 0004:00000a30       ??_R0?AV?$CComContainedObject@VCApparatus@@@ATL@@@8 1001fa30     Apparatus.obj
 0004:00000a68       ??_R0?AUIDetectData@@@8    1001fa68     DetectData.obj
 0004:00000a84       ??_R0?AVCDetectData@@@8    1001fa84     DetectData.obj
 0004:00000aa0       ??_R0?AV?$CComCoClass@VCDetectData@@$1?CLSID_DetectData@@3U_GUID@@B@ATL@@@8 1001faa0     DetectData.obj
 0004:00000af0       ??_R0?AV?$IDispatchImpl@UIDetectData@@$1?IID_IDetectData@@3U_GUID@@B$1?LIBID_XRFNetLib@@3U3@B$00$0A@VCComTypeInfoHolder@ATL@@@ATL@@@8 1001faf0     DetectData.obj
 0004:00000b78       ??_R0?AV?$CComObject@VCDetectData@@@ATL@@@8 1001fb78     DetectData.obj
 0004:00000ba8       ??_R0?AV?$CComAggObject@VCDetectData@@@ATL@@@8 1001fba8     DetectData.obj
 0004:00000bdc       ??_R0?AV?$CComContainedObject@VCDetectData@@@ATL@@@8 1001fbdc     DetectData.obj
 0004:00000c14       ??_R0?AUIDetector@@@8      1001fc14     Detector.obj
 0004:00000c2c       ??_R0?AVIEventListener@@@8 1001fc2c     Detector.obj
 0004:00000c4c       ??_R0?AVCDetector@@@8      1001fc4c     Detector.obj
 0004:00000c68       ??_R0?AV?$CComCoClass@VCDetector@@$1?CLSID_Detector@@3U_GUID@@B@ATL@@@8 1001fc68     Detector.obj
 0004:00000cb8       ??_R0?AV?$IDispatchImpl@UIDetector@@$1?IID_IDetector@@3U_GUID@@B$1?LIBID_XRFNetLib@@3U3@B$00$0A@VCComTypeInfoHolder@ATL@@@ATL@@@8 1001fcb8     Detector.obj
 0004:00000d3c       ??_R0?AV?$CComObject@VCDetector@@@ATL@@@8 1001fd3c     Detector.obj
 0004:00000d68       ??_R0?AV?$CComAggObject@VCDetector@@@ATL@@@8 1001fd68     Detector.obj
 0004:00000d98       ??_R0?AV?$CComContainedObject@VCDetector@@@ATL@@@8 1001fd98     Detector.obj
 0004:00000dd0       ??_R0?AVCAtlModule@ATL@@@8 1001fdd0     dllmain.obj
 0004:00000df0       ??_R0?AU_ATL_MODULE70@ATL@@@8 1001fdf0     dllmain.obj
 0004:00000e10       ??_R0?AVCXRFNetModule@@@8  1001fe10     dllmain.obj
 0004:00000e2c       ??_R0?AV?$CAtlDllModuleT@VCXRFNetModule@@@ATL@@@8 1001fe2c     dllmain.obj
 0004:00000e60       ??_R0?AV?$CAtlModuleT@VCXRFNetModule@@@ATL@@@8 1001fe60     dllmain.obj
 0004:00000e98       ??_R0?AU?$CAtlValidateModuleConfiguration@$00VCXRFNetModule@@@ATL@@@8 1001fe98     dllmain.obj
 0004:00000ee0       ??_R0?AUIElectromagnet@@@8 1001fee0     Electromagnet.obj
 0004:00000f00       ??_R0?AVCElectromagnet@@@8 1001ff00     Electromagnet.obj
 0004:00000f20       ??_R0?AV?$CComCoClass@VCElectromagnet@@$1?CLSID_Electromagnet@@3U_GUID@@B@ATL@@@8 1001ff20     Electromagnet.obj
 0004:00000f78       ??_R0?AV?$IDispatchImpl@UIElectromagnet@@$1?IID_IElectromagnet@@3U_GUID@@B$1?LIBID_XRFNetLib@@3U3@B$00$0A@VCComTypeInfoHolder@ATL@@@ATL@@@8 1001ff78     Electromagnet.obj
 0004:00001008       ??_R0?AV?$CComObject@VCElectromagnet@@@ATL@@@8 10020008     Electromagnet.obj
 0004:0000103c       ??_R0?AV?$CComAggObject@VCElectromagnet@@@ATL@@@8 1002003c     Electromagnet.obj
 0004:00001070       ??_R0?AV?$CComContainedObject@VCElectromagnet@@@ATL@@@8 10020070     Electromagnet.obj
 0004:000010ac       ??_R0?AVCEventMgr@@@8      100200ac     EventMgr.obj
 0004:000010c4       ??_R0?AVIEventMgr@@@8      100200c4     EventMgr.obj
 0004:000010dc       ??_R0?AUIHeightLaser@@@8   100200dc     HeightLaser.obj
 0004:000010f8       ??_R0?AVCHeightLaser@@@8   100200f8     HeightLaser.obj
 0004:00001118       ??_R0?AV?$CComCoClass@VCHeightLaser@@$1?CLSID_HeightLaser@@3U_GUID@@B@ATL@@@8 10020118     HeightLaser.obj
 0004:00001168       ??_R0?AV?$IDispatchImpl@UIHeightLaser@@$1?IID_IHeightLaser@@3U_GUID@@B$1?LIBID_XRFNetLib@@3U3@B$00$0A@VCComTypeInfoHolder@ATL@@@ATL@@@8 10020168     HeightLaser.obj
 0004:000011f4       ??_R0?AV?$CComObject@VCHeightLaser@@@ATL@@@8 100201f4     HeightLaser.obj
 0004:00001224       ??_R0?AV?$CComAggObject@VCHeightLaser@@@ATL@@@8 10020224     HeightLaser.obj
 0004:00001258       ??_R0?AV?$CComContainedObject@VCHeightLaser@@@ATL@@@8 10020258     HeightLaser.obj
 0004:00001290       ??_R0?AUIHighVoltage@@@8   10020290     HighVoltage.obj
 0004:000012ac       ??_R0?AVCHighVoltage@@@8   100202ac     HighVoltage.obj
 0004:000012c8       ??_R0?AV?$CComCoClass@VCHighVoltage@@$1?CLSID_HighVoltage@@3U_GUID@@B@ATL@@@8 100202c8     HighVoltage.obj
 0004:00001318       ??_R0?AV?$IDispatchImpl@UIHighVoltage@@$1?IID_IHighVoltage@@3U_GUID@@B$1?LIBID_XRFNetLib@@3U3@B$00$0A@VCComTypeInfoHolder@ATL@@@ATL@@@8 10020318     HighVoltage.obj
 0004:000013a4       ??_R0?AV?$CComObject@VCHighVoltage@@@ATL@@@8 100203a4     HighVoltage.obj
 0004:000013d4       ??_R0?AV?$CComAggObject@VCHighVoltage@@@ATL@@@8 100203d4     HighVoltage.obj
 0004:00001408       ??_R0?AV?$CComContainedObject@VCHighVoltage@@@ATL@@@8 10020408     HighVoltage.obj
 0004:00001440       ??_R0?AUIMotorControl@@@8  10020440     MotorControl.obj
 0004:0000145c       ??_R0?AVCMotorControl@@@8  1002045c     MotorControl.obj
 0004:00001478       ??_R0?AV?$CComCoClass@VCMotorControl@@$1?CLSID_MotorControl@@3U_GUID@@B@ATL@@@8 10020478     MotorControl.obj
 0004:000014d0       ??_R0?AV?$IDispatchImpl@UIMotorControl@@$1?IID_IMotorControl@@3U_GUID@@B$1?LIBID_XRFNetLib@@3U3@B$00$0A@VCComTypeInfoHolder@ATL@@@ATL@@@8 100204d0     MotorControl.obj
 0004:0000155c       ??_R0?AV?$CComObject@VCMotorControl@@@ATL@@@8 1002055c     MotorControl.obj
 0004:0000158c       ??_R0?AV?$CComAggObject@VCMotorControl@@@ATL@@@8 1002058c     MotorControl.obj
 0004:000015c0       ??_R0?AV?$CComContainedObject@VCMotorControl@@@ATL@@@8 100205c0     MotorControl.obj
 0004:000015fc       ??_R0?AUISurfaceSource@@@8 100205fc     SurfaceSource.obj
 0004:0000161c       ??_R0?AVCSurfaceSource@@@8 1002061c     SurfaceSource.obj
 0004:00001640       ??_R0?AV?$CComCoClass@VCSurfaceSource@@$1?CLSID_SurfaceSource@@3U_GUID@@B@ATL@@@8 10020640     SurfaceSource.obj
 0004:00001698       ??_R0?AV?$IDispatchImpl@UISurfaceSource@@$1?IID_ISurfaceSource@@3U_GUID@@B$1?LIBID_XRFNetLib@@3U3@B$00$0A@VCComTypeInfoHolder@ATL@@@ATL@@@8 10020698     SurfaceSource.obj
 0004:00001728       ??_R0?AV?$CComObject@VCSurfaceSource@@@ATL@@@8 10020728     SurfaceSource.obj
 0004:0000175c       ??_R0?AV?$CComAggObject@VCSurfaceSource@@@ATL@@@8 1002075c     SurfaceSource.obj
 0004:00001790       ??_R0?AV?$CComContainedObject@VCSurfaceSource@@@ATL@@@8 10020790     SurfaceSource.obj
 0004:000017cc       ??_R0?AUIVacuumPump@@@8    100207cc     VacuumPump.obj
 0004:000017e8       ??_R0?AVCVacuumPump@@@8    100207e8     VacuumPump.obj
 0004:00001808       ??_R0?AV?$CComCoClass@VCVacuumPump@@$1?CLSID_VacuumPump@@3U_GUID@@B@ATL@@@8 10020808     VacuumPump.obj
 0004:00001858       ??_R0?AV?$IDispatchImpl@UIVacuumPump@@$1?IID_IVacuumPump@@3U_GUID@@B$1?LIBID_XRFNetLib@@3U3@B$00$0A@VCComTypeInfoHolder@ATL@@@ATL@@@8 10020858     VacuumPump.obj
 0004:000018e0       ??_R0?AV?$CComObject@VCVacuumPump@@@ATL@@@8 100208e0     VacuumPump.obj
 0004:00001910       ??_R0?AV?$CComAggObject@VCVacuumPump@@@ATL@@@8 10020910     VacuumPump.obj
 0004:00001944       ??_R0?AV?$CComContainedObject@VCVacuumPump@@@ATL@@@8 10020944     VacuumPump.obj
 0004:0000197c       ??_R0?AVINetKernelCallback@NetLib@@@8 1002097c     XRFNetwork.obj
 0004:000019a4       ??_R0?AUIXRFNetwork@@@8    100209a4     XRFNetwork.obj
 0004:000019c0       ??_R0?AVCXRFNetwork@@@8    100209c0     XRFNetwork.obj
 0004:000019e0       ??_R0?AV?$CComCoClass@VCXRFNetwork@@$1?CLSID_XRFNetwork@@3U_GUID@@B@ATL@@@8 100209e0     XRFNetwork.obj
 0004:00001a30       ??_R0?AV?$IDispatchImpl@UIXRFNetwork@@$1?IID_IXRFNetwork@@3U_GUID@@B$1?LIBID_XRFNetLib@@3U3@B$00$0A@VCComTypeInfoHolder@ATL@@@ATL@@@8 10020a30     XRFNetwork.obj
 0004:00001ab8       ??_R0?AV?$CComObject@VCXRFNetwork@@@ATL@@@8 10020ab8     XRFNetwork.obj
 0004:00001ae8       ??_R0?AV?$CComAggObject@VCXRFNetwork@@@ATL@@@8 10020ae8     XRFNetwork.obj
 0004:00001b1c       ??_R0?AV?$CComContainedObject@VCXRFNetwork@@@ATL@@@8 10020b1c     XRFNetwork.obj
 0004:00001b54       ??_R0?AUIXRFRayTube@@@8    10020b54     XRFRayTube.obj
 0004:00001b70       ??_R0?AVCXRFRayTube@@@8    10020b70     XRFRayTube.obj
 0004:00001b90       ??_R0?AV?$CComCoClass@VCXRFRayTube@@$1?CLSID_XRFRay@@3U_GUID@@B@ATL@@@8 10020b90     XRFRayTube.obj
 0004:00001be0       ??_R0?AV?$IDispatchImpl@UIXRFRayTube@@$1?IID_IXRFRayTube@@3U_GUID@@B$1?LIBID_XRFNetLib@@3U3@B$00$0A@VCComTypeInfoHolder@ATL@@@ATL@@@8 10020be0     XRFRayTube.obj
 0004:00001c68       ??_R0?AV?$CComObject@VCXRFRayTube@@@ATL@@@8 10020c68     XRFRayTube.obj
 0004:00001c98       ??_R0?AV?$CComAggObject@VCXRFRayTube@@@ATL@@@8 10020c98     XRFRayTube.obj
 0004:00001ccc       ??_R0?AV?$CComContainedObject@VCXRFRayTube@@@ATL@@@8 10020ccc     XRFRayTube.obj
 0004:00001d04       ??_R0?AVtype_info@@@8      10020d04     MSVCRT:std_type_info_static.obj
 0004:00001d1c       ??_R0?AVbad_alloc@std@@@8  10020d1c     MSVCRT:throw_bad_alloc.obj
 0004:00001d38       ??_R0?AVexception@std@@@8  10020d38     MSVCRT:throw_bad_alloc.obj
 0004:00001d54       ??_R0?AVbad_array_new_length@std@@@8 10020d54     MSVCRT:throw_bad_alloc.obj
 0004:00001d80       ?_pAtlModule@ATL@@3PAVCAtlModule@1@A 10020d80     Apparatus.obj
 0004:00001d84       ?_AtlRegisterPerUser@ATL@@3_NA 10020d84     Apparatus.obj
 0004:00001d88       ?__objCache__CApparatus@@3U_ATL_OBJMAP_CACHE@ATL@@A 10020d88     Apparatus.obj
 0004:00001d90       ?m_libid@CAtlModule@ATL@@2U_GUID@@A 10020d90     Apparatus.obj
 0004:00001da0       ?pfnRegDeleteKeyEx@?1??DeleteSubKey@CRegKey@ATL@@QAEJPB_W@Z@4P6GJPAUHKEY__@@0KK@ZA 10020da0     Apparatus.obj
 0004:00001da4       ?bInitialized@?1??DeleteSubKey@CRegKey@ATL@@QAEJPB_W@Z@4_NA 10020da4     Apparatus.obj
 0004:00001da8       ?map@?1??VTFromRegType@CRegParser@ATL@@KAHPB_WAAG@Z@4QBUtypemap@?1??123@KAH01@Z@B 10020da8     Apparatus.obj
 0004:00001dc8       ?$TSS0@?1??VTFromRegType@CRegParser@ATL@@KAHPB_WAAG@Z@4HA 10020dc8     Apparatus.obj
 0004:00001dcc       ?__objCache__CDetectData@@3U_ATL_OBJMAP_CACHE@ATL@@A 10020dcc     DetectData.obj
 0004:00001dd4       ?__objCache__CDetector@@3U_ATL_OBJMAP_CACHE@ATL@@A 10020dd4     Detector.obj
 0004:00001de0       ?_OptionsStorage@?1??__local_stdio_printf_options@@9@4_KA 10020de0     Detector.obj
 0004:00001de8       _gPFactory                 10020de8     dlldatax.obj
 0004:00001df8       _hProxyDll                 10020df8     dlldatax.obj
 0004:00001dfc       ?_pPerfRegFunc@ATL@@3P6AJPAUHINSTANCE__@@@ZA 10020dfc     dllmain.obj
 0004:00001e00       ?_pPerfUnRegFunc@ATL@@3P6AJXZA 10020e00     dllmain.obj
 0004:00001e04       ?m_bInitFailed@CAtlBaseModule@ATL@@2_NA 10020e04     dllmain.obj
 0004:00001e08       ?_AtlModule@@3VCXRFNetModule@@A 10020e08     dllmain.obj
 0004:00001e34       ?__objCache__CElectromagnet@@3U_ATL_OBJMAP_CACHE@ATL@@A 10020e34     Electromagnet.obj
 0004:00001e3c       ?gEventApparatusConnected@@3V?$basic_string@_WU?$char_traits@_W@std@@V?$allocator@_W@2@@std@@B 10020e3c     EventDef.obj
 0004:00001e54       ?gEventApparatusShutdown@@3V?$basic_string@_WU?$char_traits@_W@std@@V?$allocator@_W@2@@std@@B 10020e54     EventDef.obj
 0004:00001e6c       ?gEventRemoteConnected@@3V?$basic_string@_WU?$char_traits@_W@std@@V?$allocator@_W@2@@std@@B 10020e6c     EventDef.obj
 0004:00001e84       ?gEventRemoteShutdown@@3V?$basic_string@_WU?$char_traits@_W@std@@V?$allocator@_W@2@@std@@B 10020e84     EventDef.obj
 0004:00001e9c       ?gEventRemoteServerShutdown@@3V?$basic_string@_WU?$char_traits@_W@std@@V?$allocator@_W@2@@std@@B 10020e9c     EventDef.obj
 0004:00001eb4       ?gEventReceiveDetectorData@@3V?$basic_string@_WU?$char_traits@_W@std@@V?$allocator@_W@2@@std@@B 10020eb4     EventDef.obj
 0004:00001ecc       ?__objCache__CHeightLaser@@3U_ATL_OBJMAP_CACHE@ATL@@A 10020ecc     HeightLaser.obj
 0004:00001ed4       ?__objCache__CHighVoltage@@3U_ATL_OBJMAP_CACHE@ATL@@A 10020ed4     HighVoltage.obj
 0004:00001edc       ?__objCache__CMotorControl@@3U_ATL_OBJMAP_CACHE@ATL@@A 10020edc     MotorControl.obj
 0004:00001ee4       ___@@_PchSym_@00@UfhvihUbzlslmtqrmUwlxfnvmghUCOAKlsKrqKrrKltKqnKpnxlnKluKopKqwUkxKlsKpoKpkUciumvgUivovzhvUhgwzucOlyq@130EB9B07AC4749E 10020ee4     stdafx.obj
 0004:00001ee8       ?g_acModulePath@@3PA_WA    10020ee8     stdafx.obj
 0004:000020f0       ?g_hNetLib@@3PAUHINSTANCE__@@A 100210f0     stdafx.obj
 0004:000020f4       ?g_pNetKernel@@3PAVINetKernel@NetLib@@A 100210f4     stdafx.obj
 0004:000020f8       ?g_uIICVersion@@3IA        100210f8     stdafx.obj
 0004:000020fc       ?g_uSPIVersion@@3IA        100210fc     stdafx.obj
 0004:00002100       ?g_strElectromagnet@@3V?$basic_string@_WU?$char_traits@_W@std@@V?$allocator@_W@2@@std@@B 10021100     stdafx.obj
 0004:00002118       ?g_strApparatus@@3V?$basic_string@_WU?$char_traits@_W@std@@V?$allocator@_W@2@@std@@B 10021118     stdafx.obj
 0004:00002130       ?g_strIICControl@@3V?$basic_string@_WU?$char_traits@_W@std@@V?$allocator@_W@2@@std@@B 10021130     stdafx.obj
 0004:00002148       ?g_strDetector@@3V?$basic_string@_WU?$char_traits@_W@std@@V?$allocator@_W@2@@std@@B 10021148     stdafx.obj
 0004:00002160       ?g_strHeightLaser@@3V?$basic_string@_WU?$char_traits@_W@std@@V?$allocator@_W@2@@std@@B 10021160     stdafx.obj
 0004:00002178       ?g_strMotorControl@@3V?$basic_string@_WU?$char_traits@_W@std@@V?$allocator@_W@2@@std@@B 10021178     stdafx.obj
 0004:00002190       ?g_strXRayTube@@3V?$basic_string@_WU?$char_traits@_W@std@@V?$allocator@_W@2@@std@@B 10021190     stdafx.obj
 0004:000021a8       ?g_eventMgr@@3VCEventMgr@@A 100211a8     stdafx.obj
 0004:000021e0       ?g_strHighVoltage@@3V?$basic_string@_WU?$char_traits@_W@std@@V?$allocator@_W@2@@std@@B 100211e0     stdafx.obj
 0004:000021f8       ?g_strVacuumPump@@3V?$basic_string@_WU?$char_traits@_W@std@@V?$allocator@_W@2@@std@@B 100211f8     stdafx.obj
 0004:00002210       ?g_strSurfaceSource@@3V?$basic_string@_WU?$char_traits@_W@std@@V?$allocator@_W@2@@std@@B 10021210     stdafx.obj
 0004:00002228       ?__objCache__CSurfaceSource@@3U_ATL_OBJMAP_CACHE@ATL@@A 10021228     SurfaceSource.obj
 0004:00002230       ?__objCache__CVacuumPump@@3U_ATL_OBJMAP_CACHE@ATL@@A 10021230     VacuumPump.obj
 0004:00002238       ?__objCache__CXRFNetwork@@3U_ATL_OBJMAP_CACHE@ATL@@A 10021238     XRFNetwork.obj
 0004:00002240       ?__objCache__CXRFRayTube@@3U_ATL_OBJMAP_CACHE@ATL@@A 10021240     XRFRayTube.obj
 0004:00002248       ?_AtlBaseModule@ATL@@3VCAtlBaseModule@1@A 10021248     atls:atlbase.obj
 0004:00002280       ___@@_PchSym_@00@UwwUexgllohUexHoryhUhsrkUzgonuxUhixUzgoUzgohUlyqBiUrDIGUhgwzucOlyq@D30CF1FEFB9F8AE1 10021280     atls:stdafx.obj
 0004:00002284       ?nothrow@std@@3Unothrow_t@1@B 10021284     msvcprt:nothrow.obj
 0004:000025cc       __tls_index                100215cc     MSVCRT:tlssup.obj
 0004:000025d0       ___scrt_current_native_startup_state 100215d0     MSVCRT:utility.obj
 0004:000025d4       ___scrt_native_startup_lock 100215d4     MSVCRT:utility.obj
 0004:000025f8       ___scrt_debugger_hook_flag 100215f8     MSVCRT:utility_desktop.obj
 0004:000025fc       ___isa_available           100215fc     MSVCRT:_cpu_disp_.obj
 0004:00002600       ___favor                   10021600     MSVCRT:_cpu_disp_.obj
 0004:00002608       ?__type_info_root_node@@3U__type_info_node@@A 10021608     MSVCRT:tncleanup.obj
 0004:00002610       ?_OptionsStorage@?1??__local_stdio_scanf_options@@9@4_KA 10021610     MSVCRT:default_local_stdio_options.obj
 0004:00002618       ?g_strDigitxU@Skyray@@3V?$basic_string@_WU?$char_traits@_W@std@@V?$allocator@_W@2@@std@@B 10021618     SkyrayLib:SkyrayUtil.obj
 0004:00002630       ?g_strDigitxA@Skyray@@3V?$basic_string@DU?$char_traits@D@std@@V?$allocator@D@2@@std@@B 10021630     SkyrayLib:SkyrayUtil.obj
 0004:00002648       ___dyn_tls_init_callback   10021648     <common>
 0005:00000000       __tls_start                10022000     MSVCRT:tlssup.obj
 0005:00000004       __Init_thread_epoch        10022004     MSVCRT:thread_safe_statics.obj
 0005:00000008       __tls_end                  10022008     MSVCRT:tlssup.obj

 entry point at        0001:00011f3c

 Static symbols

 0000:fffd3000       .debug$S                   10000000     msvcprt:MSVCP140.dll
 0000:fffd3000       .debug$S                   10000000     kernel32:KERNEL32.dll
 0000:fffd3000       .debug$S                   10000000     kernel32:KERNEL32.dll
 0000:fffd3000       .debug$S                   10000000     kernel32:KERNEL32.dll
 0000:fffd3000       .debug$S                   10000000     kernel32:KERNEL32.dll
 0000:fffd3000       .debug$S                   10000000     kernel32:KERNEL32.dll
 0000:fffd3000       .debug$S                   10000000     kernel32:KERNEL32.dll
 0000:fffd3000       .debug$S                   10000000     kernel32:KERNEL32.dll
 0000:fffd3000       .debug$S                   10000000     kernel32:KERNEL32.dll
 0000:fffd3000       .debug$S                   10000000     kernel32:KERNEL32.dll
 0000:fffd3000       .debug$S                   10000000     kernel32:KERNEL32.dll
 0000:fffd3000       .debug$S                   10000000     ucrt:api-ms-win-crt-heap-l1-1-0.dll
 0000:fffd3000       .debug$S                   10000000     ucrt:api-ms-win-crt-heap-l1-1-0.dll
 0000:fffd3000       .debug$S                   10000000     ucrt:api-ms-win-crt-heap-l1-1-0.dll
 0000:fffd3000       .debug$S                   10000000     ucrt:api-ms-win-crt-heap-l1-1-0.dll
 0000:fffd3000       .debug$S                   10000000     ucrt:api-ms-win-crt-math-l1-1-0.dll
 0000:fffd3000       .debug$S                   10000000     ucrt:api-ms-win-crt-runtime-l1-1-0.dll
 0000:fffd3000       .debug$S                   10000000     ucrt:api-ms-win-crt-runtime-l1-1-0.dll
 0000:fffd3000       .debug$S                   10000000     ucrt:api-ms-win-crt-runtime-l1-1-0.dll
 0000:fffd3000       .debug$S                   10000000     ucrt:api-ms-win-crt-runtime-l1-1-0.dll
 0000:fffd3000       .debug$S                   10000000     ucrt:api-ms-win-crt-runtime-l1-1-0.dll
 0000:fffd3000       .debug$S                   10000000     kernel32:KERNEL32.dll
 0000:fffd3000       .debug$S                   10000000     kernel32:KERNEL32.dll
 0000:fffd3000       .debug$S                   10000000     kernel32:KERNEL32.dll
 0000:fffd3000       .debug$S                   10000000     ucrt:api-ms-win-crt-runtime-l1-1-0.dll
 0000:fffd3000       .debug$S                   10000000     ucrt:api-ms-win-crt-runtime-l1-1-0.dll
 0000:fffd3000       .debug$S                   10000000     ucrt:api-ms-win-crt-runtime-l1-1-0.dll
 0000:fffd3000       .debug$S                   10000000     ucrt:api-ms-win-crt-runtime-l1-1-0.dll
 0000:fffd3000       .debug$S                   10000000     ucrt:api-ms-win-crt-runtime-l1-1-0.dll
 0000:fffd3000       .debug$S                   10000000     ucrt:api-ms-win-crt-runtime-l1-1-0.dll
 0000:fffd3000       .debug$S                   10000000     ucrt:api-ms-win-crt-runtime-l1-1-0.dll
 0000:fffd3000       .debug$S                   10000000     ucrt:api-ms-win-crt-runtime-l1-1-0.dll
 0000:fffd3000       .debug$S                   10000000     ucrt:api-ms-win-crt-runtime-l1-1-0.dll
 0000:fffd3000       .debug$S                   10000000     ucrt:api-ms-win-crt-stdio-l1-1-0.dll
 0000:fffd3000       .debug$S                   10000000     ucrt:api-ms-win-crt-string-l1-1-0.dll
 0000:fffd3000       .debug$S                   10000000     ucrt:api-ms-win-crt-string-l1-1-0.dll
 0000:fffd3000       .debug$S                   10000000     ucrt:api-ms-win-crt-string-l1-1-0.dll
 0000:fffd3000       .debug$S                   10000000     ucrt:api-ms-win-crt-string-l1-1-0.dll
 0000:fffd3000       .debug$S                   10000000     vcruntime:VCRUNTIME140.dll
 0000:fffd3000       .debug$S                   10000000     vcruntime:VCRUNTIME140.dll
 0000:fffd3000       .debug$S                   10000000     vcruntime:VCRUNTIME140.dll
 0000:fffd3000       .debug$S                   10000000     XRFNet.exp
 0000:fffd3000       .debug$S                   10000000     vcruntime:VCRUNTIME140.dll
 0000:fffd3000       .debug$S                   10000000     vcruntime:VCRUNTIME140.dll
 0000:fffd3000       .debug$S                   10000000     vcruntime:VCRUNTIME140.dll
 0000:fffd3000       .debug$S                   10000000     vcruntime:VCRUNTIME140.dll
 0000:fffd3000       .debug$S                   10000000     vcruntime:VCRUNTIME140.dll
 0000:fffd3000       .debug$S                   10000000     vcruntime:VCRUNTIME140.dll
 0000:fffd3000       .debug$S                   10000000     vcruntime:VCRUNTIME140.dll
 0000:fffd3000       .debug$S                   10000000     vcruntime:VCRUNTIME140.dll
 0000:fffd3000       .debug$S                   10000000     vcruntime:VCRUNTIME140.dll
 0000:fffd3000       .debug$S                   10000000     kernel32:KERNEL32.dll
 0000:fffd3000       .debug$S                   10000000     kernel32:KERNEL32.dll
 0000:fffd3000       .debug$S                   10000000     kernel32:KERNEL32.dll
 0000:fffd3000       .debug$S                   10000000     kernel32:KERNEL32.dll
 0000:fffd3000       .debug$S                   10000000     kernel32:KERNEL32.dll
 0000:fffd3000       .debug$S                   10000000     kernel32:KERNEL32.dll
 0000:fffd3000       .debug$S                   10000000     kernel32:KERNEL32.dll
 0000:fffd3000       .debug$S                   10000000     kernel32:KERNEL32.dll
 0000:fffd3000       .debug$S                   10000000     kernel32:KERNEL32.dll
 0000:fffd3000       .debug$S                   10000000     kernel32:KERNEL32.dll
 0000:fffd3000       .debug$S                   10000000     kernel32:KERNEL32.dll
 0000:fffd3000       .debug$S                   10000000     kernel32:KERNEL32.dll
 0000:fffd3000       .debug$S                   10000000     kernel32:KERNEL32.dll
 0000:fffd3000       .debug$S                   10000000     kernel32:KERNEL32.dll
 0000:fffd3000       .debug$S                   10000000     kernel32:KERNEL32.dll
 0000:fffd3000       .debug$S                   10000000     kernel32:KERNEL32.dll
 0000:fffd3000       .debug$S                   10000000     vcruntime:VCRUNTIME140.dll
 0000:fffd3000       .debug$S                   10000000     vcruntime:VCRUNTIME140.dll
 0000:fffd3000       .debug$S                   10000000     vcruntime:VCRUNTIME140.dll
 0000:fffd3000       .debug$S                   10000000     vcruntime:VCRUNTIME140.dll
 0000:fffd3000       .debug$S                   10000000     vcruntime:VCRUNTIME140.dll
 0000:fffd3000       .debug$S                   10000000     rpcrt4:RPCRT4.dll
 0000:fffd3000       .debug$S                   10000000     rpcrt4:RPCRT4.dll
 0000:fffd3000       .debug$S                   10000000     rpcrt4:RPCRT4.dll
 0000:fffd3000       .debug$S                   10000000     kernel32:KERNEL32.dll
 0000:fffd3000       .debug$S                   10000000     rpcrt4:RPCRT4.dll
 0000:fffd3000       .debug$S                   10000000     rpcrt4:RPCRT4.dll
 0000:fffd3000       .debug$S                   10000000     rpcrt4:RPCRT4.dll
 0000:fffd3000       .debug$S                   10000000     rpcrt4:RPCRT4.dll
 0000:fffd3000       .debug$S                   10000000     kernel32:KERNEL32.dll
 0000:fffd3000       .debug$S                   10000000     rpcrt4:RPCRT4.dll
 0000:fffd3000       .debug$S                   10000000     rpcrt4:RPCRT4.dll
 0000:fffd3000       .debug$S                   10000000     kernel32:KERNEL32.dll
 0000:fffd3000       .debug$S                   10000000     kernel32:KERNEL32.dll
 0000:fffd3000       .debug$S                   10000000     kernel32:KERNEL32.dll
 0000:fffd3000       .debug$S                   10000000     kernel32:KERNEL32.dll
 0000:fffd3000       .debug$S                   10000000     kernel32:KERNEL32.dll
 0000:fffd3000       .debug$S                   10000000     kernel32:KERNEL32.dll
 0000:fffd3000       .debug$S                   10000000     kernel32:KERNEL32.dll
 0000:fffd3000       .debug$S                   10000000     kernel32:KERNEL32.dll
 0000:fffd3000       .debug$S                   10000000     kernel32:KERNEL32.dll
 0000:fffd3000       .debug$S                   10000000     user32:USER32.dll
 0000:fffd3000       .debug$S                   10000000     kernel32:KERNEL32.dll
 0000:fffd3000       .debug$S                   10000000     user32:USER32.dll
 0000:fffd3000       .debug$S                   10000000     user32:USER32.dll
 0000:fffd3000       .debug$S                   10000000     user32:USER32.dll
 0000:fffd3000       .debug$S                   10000000     user32:USER32.dll
 0000:fffd3000       .debug$S                   10000000     kernel32:KERNEL32.dll
 0000:fffd3000       .debug$S                   10000000     user32:USER32.dll
 0000:fffd3000       .debug$S                   10000000     user32:USER32.dll
 0000:fffd3000       .debug$S                   10000000     rpcrt4:RPCRT4.dll
 0000:fffd3000       .debug$S                   10000000     rpcrt4:RPCRT4.dll
 0000:fffd3000       .debug$S                   10000000     rpcrt4:RPCRT4.dll
 0000:fffd3000       .debug$S                   10000000     rpcrt4:RPCRT4.dll
 0000:fffd3000       .debug$S                   10000000     rpcrt4:RPCRT4.dll
 0000:fffd3000       .debug$S                   10000000     rpcrt4:RPCRT4.dll
 0000:fffd3000       .debug$S                   10000000     rpcrt4:RPCRT4.dll
 0000:fffd3000       .debug$S                   10000000     rpcrt4:RPCRT4.dll
 0000:fffd3000       .debug$S                   10000000     rpcrt4:RPCRT4.dll
 0000:fffd3000       .debug$S                   10000000     rpcrt4:RPCRT4.dll
 0000:fffd3000       .debug$S                   10000000     rpcrt4:RPCRT4.dll
 0000:fffd3000       .debug$S                   10000000     rpcrt4:RPCRT4.dll
 0000:fffd3000       .debug$S                   10000000     advapi32:ADVAPI32.dll
 0000:fffd3000       .debug$S                   10000000     rpcrt4:RPCRT4.dll
 0000:fffd3000       .debug$S                   10000000     advapi32:ADVAPI32.dll
 0000:fffd3000       .debug$S                   10000000     advapi32:ADVAPI32.dll
 0000:fffd3000       .debug$S                   10000000     advapi32:ADVAPI32.dll
 0000:fffd3000       .debug$S                   10000000     advapi32:ADVAPI32.dll
 0000:fffd3000       .debug$S                   10000000     advapi32:ADVAPI32.dll
 0000:fffd3000       .debug$S                   10000000     advapi32:ADVAPI32.dll
 0000:fffd3000       .debug$S                   10000000     advapi32:ADVAPI32.dll
 0000:fffd3000       .debug$S                   10000000     kernel32:KERNEL32.dll
 0000:fffd3000       .debug$S                   10000000     kernel32:KERNEL32.dll
 0000:fffd3000       .debug$S                   10000000     kernel32:KERNEL32.dll
 0000:fffd3000       .debug$S                   10000000     kernel32:KERNEL32.dll
 0000:fffd3000       .debug$S                   10000000     ole32:ole32.dll
 0000:fffd3000       .debug$S                   10000000     ole32:ole32.dll
 0000:fffd3000       .debug$S                   10000000     ole32:ole32.dll
 0000:fffd3000       .debug$S                   10000000     ole32:ole32.dll
 0000:fffd3000       .debug$S                   10000000     ole32:ole32.dll
 0000:fffd3000       .debug$S                   10000000     oleaut32:OLEAUT32.dll
 0000:fffd3000       .debug$S                   10000000     oleaut32:OLEAUT32.dll
 0000:fffd3000       .debug$S                   10000000     oleaut32:OLEAUT32.dll
 0000:fffd3000       .debug$S                   10000000     oleaut32:OLEAUT32.dll
 0000:fffd3000       .debug$S                   10000000     oleaut32:OLEAUT32.dll
 0000:fffd3000       .debug$S                   10000000     oleaut32:OLEAUT32.dll
 0000:fffd3000       .debug$S                   10000000     oleaut32:OLEAUT32.dll
 0000:fffd3000       .debug$S                   10000000     oleaut32:OLEAUT32.dll
 0000:fffd3000       .debug$S                   10000000     kernel32:KERNEL32.dll
 0000:fffd3000       .debug$S                   10000000     msvcprt:MSVCP140.dll
 0000:fffd3000       .debug$S                   10000000     msvcprt:MSVCP140.dll
 0000:fffd3000       .debug$S                   10000000     Ws2_32:WS2_32.dll
 0001:00000000       ??__Eg_strDigitxA@Skyray@@YAXXZ 10001000 f   SkyrayLib:SkyrayUtil.obj
 0001:00000040       ??__Eg_strDigitxU@Skyray@@YAXXZ 10001040 f   SkyrayLib:SkyrayUtil.obj
 0001:00000090       ??__E_AtlComModule@ATL@@YAXXZ 10001090 f   dllmain.obj
 0001:000000f0       ??__E_AtlModule@@YAXXZ     100010f0 f   dllmain.obj
 0001:00000110       ??__EgEventApparatusConnected@@YAXXZ 10001110 f   EventDef.obj
 0001:00000160       ??__EgEventApparatusShutdown@@YAXXZ 10001160 f   EventDef.obj
 0001:000001b0       ??__EgEventReceiveDetectorData@@YAXXZ 100011b0 f   EventDef.obj
 0001:00000200       ??__EgEventRemoteConnected@@YAXXZ 10001200 f   EventDef.obj
 0001:00000250       ??__EgEventRemoteServerShutdown@@YAXXZ 10001250 f   EventDef.obj
 0001:000002a0       ??__EgEventRemoteShutdown@@YAXXZ 100012a0 f   EventDef.obj
 0001:000002f0       ??__Eg_eventMgr@@YAXXZ     100012f0 f   stdafx.obj
 0001:00000310       ??__Eg_strApparatus@@YAXXZ 10001310 f   stdafx.obj
 0001:00000360       ??__Eg_strDetector@@YAXXZ  10001360 f   stdafx.obj
 0001:000003b0       ??__Eg_strElectromagnet@@YAXXZ 100013b0 f   stdafx.obj
 0001:00000400       ??__Eg_strHeightLaser@@YAXXZ 10001400 f   stdafx.obj
 0001:00000450       ??__Eg_strHighVoltage@@YAXXZ 10001450 f   stdafx.obj
 0001:000004a0       ??__Eg_strIICControl@@YAXXZ 100014a0 f   stdafx.obj
 0001:000004f0       ??__Eg_strMotorControl@@YAXXZ 100014f0 f   stdafx.obj
 0001:00000540       ??__Eg_strSurfaceSource@@YAXXZ 10001540 f   stdafx.obj
 0001:00000590       ??__Eg_strVacuumPump@@YAXXZ 10001590 f   stdafx.obj
 0001:000005e0       ??__Eg_strXRayTube@@YAXXZ  100015e0 f   stdafx.obj
 0001:00000630       ??__E_AtlBaseModule@ATL@@YAXXZ 10001630 f   atls:atlbase.obj
 0001:000010e3       __catch$?_Copy@?$basic_string@_WU?$char_traits@_W@std@@V?$allocator@_W@2@@std@@QAEXII@Z$0 100020e3 f i SkyrayLib:SkyrayUtil.obj
 0001:0000118a       __catch$?_Copy@?$basic_string@_WU?$char_traits@_W@std@@V?$allocator@_W@2@@std@@QAEXII@Z$1 1000218a f i SkyrayLib:SkyrayUtil.obj
 0001:0000129a       __catch$?_Copy@?$basic_string@DU?$char_traits@D@std@@V?$allocator@D@2@@std@@QAEXII@Z$0 1000229a f i SkyrayLib:SkyrayUtil.obj
 0001:00001337       __catch$?_Copy@?$basic_string@DU?$char_traits@D@std@@V?$allocator@D@2@@std@@QAEXII@Z$1 10002337 f i SkyrayLib:SkyrayUtil.obj
 0001:0000212c       __catch$?AddValue@CRegParser@ATL@@IAEJAAVCRegKey@2@PB_WPA_W@Z$2 1000312c f i Apparatus.obj
 0001:000022c7       __catch$?AddValue@CRegParser@ATL@@IAEJAAVCRegKey@2@PB_WPA_W@Z$0 100032c7 f i Apparatus.obj
 0001:000025bc       $LN12                      100035bc     Apparatus.obj
 0001:000025cc       $LN9                       100035cc     Apparatus.obj
 0001:0000285c       $LN11                      1000385c     Apparatus.obj
 0001:0000286c       $LN9                       1000386c     Apparatus.obj
 0001:00002d68       __catch$?CreateInstance@?$CComCreator@V?$CComAggObject@VCApparatus@@@ATL@@@ATL@@SGJPAXABU_GUID@@PAPAX@Z$0 10003d68 f i Apparatus.obj
 0001:00002e88       __catch$?CreateInstance@?$CComCreator@V?$CComObject@VCApparatus@@@ATL@@@ATL@@SGJPAXABU_GUID@@PAPAX@Z$0 10003e88 f i Apparatus.obj
 0001:00003a58       $LN77                      10004a58     Apparatus.obj
 0001:00003a60       $LN64                      10004a60     Apparatus.obj
 0001:00004330       __catch$?RegisterFromResource@CRegObject@ATL@@IAEJPB_W00H@Z$4 10005330 f i Apparatus.obj
 0001:00004e2c       $LN16                      10005e2c     Apparatus.obj
 0001:00004e34       $LN14                      10005e34     Apparatus.obj
 0001:000055c8       __catch$?CreateInstance@?$CComCreator@V?$CComAggObject@VCDetectData@@@ATL@@@ATL@@SGJPAXABU_GUID@@PAPAX@Z$0 100065c8 f i DetectData.obj
 0001:000056f6       __catch$?CreateInstance@?$CComCreator@V?$CComObject@VCDetectData@@@ATL@@@ATL@@SGJPAXABU_GUID@@PAPAX@Z$0 100066f6 f i DetectData.obj
 0001:00005a30       _memcpy_s                  10006a30 f   Apparatus.obj
 0001:00005a30       _memcpy_s                  10006a30 f   DetectData.obj
 0001:0000626b       __catch$?CreateInstance@?$CComCreator@V?$CComAggObject@VCDetector@@@ATL@@@ATL@@SGJPAXABU_GUID@@PAPAX@Z$0 1000726b f i Detector.obj
 0001:000063a7       __catch$?CreateInstance@?$CComCreator@V?$CComObject@VCDetector@@@ATL@@@ATL@@SGJPAXABU_GUID@@PAPAX@Z$0 100073a7 f i Detector.obj
 0001:000079c8       __catch$?CreateInstance@?$CComCreator@V?$CComAggObject@VCElectromagnet@@@ATL@@@ATL@@SGJPAXABU_GUID@@PAPAX@Z$0 100089c8 f i Electromagnet.obj
 0001:00007ae8       __catch$?CreateInstance@?$CComCreator@V?$CComObject@VCElectromagnet@@@ATL@@@ATL@@SGJPAXABU_GUID@@PAPAX@Z$0 10008ae8 f i Electromagnet.obj
 0001:00007e5f       __catch$??$_Buynode@ABUpiecewise_construct_t@std@@V?$tuple@ABV?$basic_string@_WU?$char_traits@_W@std@@V?$allocator@_W@2@@std@@@2@V?$tuple@$$V@2@@?$_Tree_comp_alloc@V?$_Tmap_traits@V?$basic_string@_WU?$char_traits@_W@std@@V?$allocator@_W@2@@std@@PAV?$list@PAVIEventListener@@V?$allocator@PAVIEventListener@@@std@@@2@U?$less@V?$basic_string@_WU?$char_traits@_W@std@@V?$allocator@_W@2@@std@@@2@V?$allocator@U?$pair@$$CBV?$basic_string@_WU?$char_traits@_W@std@@V?$allocator@_W@2@@std@@PAV?$list@PAVIEventListener@@V?$allocator@PAVIEventListener@@@std@@@2@@std@@@2@$0A@@std@@@std@@QAEPAU?$_Tree_node@U?$pair@$$CBV?$basic_string@_WU?$char_traits@_W@std@@V?$allocator@_W@2@@std@@PAV?$list@PAVIEventListener@@V?$allocator@PAVIEventListener@@@std@@@2@@std@@PAX@1@ABUpiecewise_construct_t@1@$$QAV?$tuple@ABV?$basic_string@_WU?$char_traits@_W@std@@V?$allocator@_W@2@@std@@@1@$$QAV?$tuple@$$V@1@@Z$0 10008e5f f i EventMgr.obj
 0001:00007f21       __catch$??$_Buynode@ABV?$basic_string@_WU?$char_traits@_W@std@@V?$allocator@_W@2@@std@@@?$_List_buy@V?$basic_string@_WU?$char_traits@_W@std@@V?$allocator@_W@2@@std@@V?$allocator@V?$basic_string@_WU?$char_traits@_W@std@@V?$allocator@_W@2@@std@@@2@@std@@QAEPAU?$_List_node@V?$basic_string@_WU?$char_traits@_W@std@@V?$allocator@_W@2@@std@@PAX@1@PAU21@0ABV?$basic_string@_WU?$char_traits@_W@std@@V?$allocator@_W@2@@1@@Z$0 10008f21 f i EventMgr.obj
 0001:000082c5       __catch$??$_Insert_hint@AAU?$pair@$$CBV?$basic_string@_WU?$char_traits@_W@std@@V?$allocator@_W@2@@std@@PAV?$list@PAVIEventListener@@V?$allocator@PAVIEventListener@@@std@@@2@@std@@PAU?$_Tree_node@U?$pair@$$CBV?$basic_string@_WU?$char_traits@_W@std@@V?$allocator@_W@2@@std@@PAV?$list@PAVIEventListener@@V?$allocator@PAVIEventListener@@@std@@@2@@std@@PAX@2@@?$_Tree@V?$_Tmap_traits@V?$basic_string@_WU?$char_traits@_W@std@@V?$allocator@_W@2@@std@@PAV?$list@PAVIEventListener@@V?$allocator@PAVIEventListener@@@std@@@2@U?$less@V?$basic_string@_WU?$char_traits@_W@std@@V?$allocator@_W@2@@std@@@2@V?$allocator@U?$pair@$$CBV?$basic_string@_WU?$char_traits@_W@std@@V?$allocator@_W@2@@std@@PAV?$list@PAVIEventListener@@V?$allocator@PAVIEventListener@@@std@@@2@@std@@@2@$0A@@std@@@std@@IAE?AV?$_Tree_iterator@V?$_Tree_val@U?$_Tree_simple_types@U?$pair@$$CBV?$basic_string@_WU?$char_traits@_W@std@@V?$allocator@_W@2@@std@@PAV?$list@PAVIEventListener@@V?$allocator@PAVIEventListener@@@std@@@2@@std@@@std@@@std@@@1@V?$_Tree_const_iterator@V?$_Tree_val@U?$_Tree_simple_types@U?$pair@$$CBV?$basic_string@_WU?$char_traits@_W@std@@V?$allocator@_W@2@@std@@PAV?$list@PAVIEventListener@@V?$allocator@PAVIEventListener@@@std@@@2@@std@@@std@@@std@@@1@AAU?$pair@$$CBV?$basic_string@_WU?$char_traits@_W@std@@V?$allocator@_W@2@@std@@PAV?$list@PAVIEventListener@@V?$allocator@PAVIEventListener@@@std@@@2@@1@PAU?$_Tree_node@U?$pair@$$CBV?$basic_string@_WU?$char_traits@_W@std@@V?$allocator@_W@2@@std@@PAV?$list@PAVIEventListener@@V?$allocator@PAVIEventListener@@@std@@@2@@std@@PAX@1@@Z$0 100092c5 f i EventMgr.obj
 0001:00008435       __catch$??$_Insert_nohint@AAU?$pair@$$CBV?$basic_string@_WU?$char_traits@_W@std@@V?$allocator@_W@2@@std@@PAV?$list@PAVIEventListener@@V?$allocator@PAVIEventListener@@@std@@@2@@std@@PAU?$_Tree_node@U?$pair@$$CBV?$basic_string@_WU?$char_traits@_W@std@@V?$allocator@_W@2@@std@@PAV?$list@PAVIEventListener@@V?$allocator@PAVIEventListener@@@std@@@2@@std@@PAX@2@@?$_Tree@V?$_Tmap_traits@V?$basic_string@_WU?$char_traits@_W@std@@V?$allocator@_W@2@@std@@PAV?$list@PAVIEventListener@@V?$allocator@PAVIEventListener@@@std@@@2@U?$less@V?$basic_string@_WU?$char_traits@_W@std@@V?$allocator@_W@2@@std@@@2@V?$allocator@U?$pair@$$CBV?$basic_string@_WU?$char_traits@_W@std@@V?$allocator@_W@2@@std@@PAV?$list@PAVIEventListener@@V?$allocator@PAVIEventListener@@@std@@@2@@std@@@2@$0A@@std@@@std@@IAE?AU?$pair@V?$_Tree_iterator@V?$_Tree_val@U?$_Tree_simple_types@U?$pair@$$CBV?$basic_string@_WU?$char_traits@_W@std@@V?$allocator@_W@2@@std@@PAV?$list@PAVIEventListener@@V?$allocator@PAVIEventListener@@@std@@@2@@std@@@std@@@std@@@std@@_N@1@_NAAU?$pair@$$CBV?$basic_string@_WU?$char_traits@_W@std@@V?$allocator@_W@2@@std@@PAV?$list@PAVIEventListener@@V?$allocator@PAVIEventListener@@@std@@@2@@1@PAU?$_Tree_node@U?$pair@$$CBV?$basic_string@_WU?$char_traits@_W@std@@V?$allocator@_W@2@@std@@PAV?$list@PAVIEventListener@@V?$allocator@PAVIEventListener@@@std@@@2@@std@@PAX@1@@Z$0 10009435 f i EventMgr.obj
 0001:00009fc8       __catch$?CreateInstance@?$CComCreator@V?$CComAggObject@VCHeightLaser@@@ATL@@@ATL@@SGJPAXABU_GUID@@PAPAX@Z$0 1000afc8 f i HeightLaser.obj
 0001:0000a0e8       __catch$?CreateInstance@?$CComCreator@V?$CComObject@VCHeightLaser@@@ATL@@@ATL@@SGJPAXABU_GUID@@PAPAX@Z$0 1000b0e8 f i HeightLaser.obj
 0001:0000a7b8       __catch$?CreateInstance@?$CComCreator@V?$CComAggObject@VCHighVoltage@@@ATL@@@ATL@@SGJPAXABU_GUID@@PAPAX@Z$0 1000b7b8 f i HighVoltage.obj
 0001:0000a8d8       __catch$?CreateInstance@?$CComCreator@V?$CComObject@VCHighVoltage@@@ATL@@@ATL@@SGJPAXABU_GUID@@PAPAX@Z$0 1000b8d8 f i HighVoltage.obj
 0001:0000afa1       __catch$?CreateInstance@?$CComCreator@V?$CComAggObject@VCMotorControl@@@ATL@@@ATL@@SGJPAXABU_GUID@@PAPAX@Z$0 1000bfa1 f i MotorControl.obj
 0001:0000b0b8       __catch$?CreateInstance@?$CComCreator@V?$CComObject@VCMotorControl@@@ATL@@@ATL@@SGJPAXABU_GUID@@PAPAX@Z$0 1000c0b8 f i MotorControl.obj
 0001:0000b828       __catch$?CreateInstance@?$CComCreator@V?$CComAggObject@VCSurfaceSource@@@ATL@@@ATL@@SGJPAXABU_GUID@@PAPAX@Z$0 1000c828 f i SurfaceSource.obj
 0001:0000b948       __catch$?CreateInstance@?$CComCreator@V?$CComObject@VCSurfaceSource@@@ATL@@@ATL@@SGJPAXABU_GUID@@PAPAX@Z$0 1000c948 f i SurfaceSource.obj
 0001:0000c0a1       __catch$?CreateInstance@?$CComCreator@V?$CComAggObject@VCVacuumPump@@@ATL@@@ATL@@SGJPAXABU_GUID@@PAPAX@Z$0 1000d0a1 f i VacuumPump.obj
 0001:0000c1b8       __catch$?CreateInstance@?$CComCreator@V?$CComObject@VCVacuumPump@@@ATL@@@ATL@@SGJPAXABU_GUID@@PAPAX@Z$0 1000d1b8 f i VacuumPump.obj
 0001:0000c680       ?AtlFindExtension@ATL@@YAPA_WPB_W@Z 1000d680 f   XRFNet.obj
 0001:0000c6d0       ?AtlGetDirLen@ATL@@YGIPB_W@Z 1000d6d0 f   XRFNet.obj
 0001:0000d9cb       __catch$?CreateInstance@?$CComCreator@V?$CComAggObject@VCXRFNetwork@@@ATL@@@ATL@@SGJPAXABU_GUID@@PAPAX@Z$0 1000e9cb f i XRFNetwork.obj
 0001:0000db0e       __catch$?CreateInstance@?$CComCreator@V?$CComObject@VCXRFNetwork@@@ATL@@@ATL@@SGJPAXABU_GUID@@PAPAX@Z$0 1000eb0e f i XRFNetwork.obj
 0001:0000f884       __catch$?CreateInstance@?$CComCreator@V?$CComAggObject@VCXRFRayTube@@@ATL@@@ATL@@SGJPAXABU_GUID@@PAPAX@Z$0 10010884 f i XRFRayTube.obj
 0001:0000f9ab       __catch$?CreateInstance@?$CComCreator@V?$CComObject@VCXRFRayTube@@@ATL@@@ATL@@SGJPAXABU_GUID@@PAPAX@Z$0 100109ab f i XRFRayTube.obj
 0001:00011234       ?__scrt_initialize_thread_safe_statics@@YAHXZ 10012234 f   MSVCRT:thread_safe_statics.obj
 0001:00011311       ?__scrt_uninitialize_thread_safe_statics@@YAXXZ 10012311 f   MSVCRT:thread_safe_statics.obj
 0001:000114a8       __catch$??2@YAPAXIABUnothrow_t@std@@@Z$0 100124a8 f   MSVCRT:new_scalar_nothrow.obj
 0001:00011500       $$000000                   10012500     MSVCRT:chkstk.obj
 0001:0001158c       ?find_pe_section@@YAPAU_IMAGE_SECTION_HEADER@@QAEI@Z 1001258c f   MSVCRT:utility.obj
 0001:000118b0       $$000000                   100128b0     MSVCRT:_ftol3_.obj
 0001:00011c27       ?dllmain_crt_dispatch@@YGHQAUHINSTANCE__@@KQAX@Z 10012c27 f   MSVCRT:dll_dllmain.obj
 0001:00011c7a       ?dllmain_crt_process_attach@@YAHQAUHINSTANCE__@@QAX@Z 10012c7a f   MSVCRT:dll_dllmain.obj
 0001:00011d8c       ?dllmain_crt_process_detach@@YAH_N@Z 10012d8c f   MSVCRT:dll_dllmain.obj
 0001:00011e09       ?dllmain_dispatch@@YAHQAUHINSTANCE__@@KQAX@Z 10012e09 f   MSVCRT:dll_dllmain.obj
 0001:00011f12       ?dllmain_raw@@YGHQAUHINSTANCE__@@KQAX@Z 10012f12 f   MSVCRT:dll_dllmain.obj
 0001:00011f70       $$000000                   10012f70     MSVCRT:_sehprolg4_.obj
 0001:00012640       __ehhandler$??4?$basic_string@_WU?$char_traits@_W@std@@V?$allocator@_W@2@@std@@QAEAAV01@$$QAV01@@Z 10013640 f   SkyrayLib:SkyrayUtil.obj
 0001:00012660       __ehhandler$?_Copy@?$basic_string@_WU?$char_traits@_W@std@@V?$allocator@_W@2@@std@@QAEXII@Z 10013660 f   SkyrayLib:SkyrayUtil.obj
 0001:00012680       __ehhandler$?_Copy@?$basic_string@DU?$char_traits@D@std@@V?$allocator@D@2@@std@@QAEXII@Z 10013680 f   SkyrayLib:SkyrayUtil.obj
 0001:000126a0       __unwindfunclet$??0?$CComAggObject@VCApparatus@@@ATL@@QAE@PAX@Z$0 100136a0 f   Apparatus.obj
 0001:000126ab       __ehhandler$??0?$CComAggObject@VCApparatus@@@ATL@@QAE@PAX@Z 100136ab f   Apparatus.obj
 0001:000126d0       __unwindfunclet$??0?$CComObject@VCApparatus@@@ATL@@QAE@PAX@Z$0 100136d0 f   Apparatus.obj
 0001:000126d8       __ehhandler$??0?$CComObject@VCApparatus@@@ATL@@QAE@PAX@Z 100136d8 f   Apparatus.obj
 0001:00012700       __ehhandler$??1?$CComPtr@UITypeInfo2@@@ATL@@QAE@XZ 10013700 f   Apparatus.obj
 0001:00012700       __ehhandler$??1?$CComPtr@UITypeInfo@@@ATL@@QAE@XZ 10013700 f   Apparatus.obj
 0001:00012720       __unwindfunclet$?Add@CExpansionVector@ATL@@QAEHPB_W0@Z$0 10013720 f   Apparatus.obj
 0001:00012728       __unwindfunclet$?Add@CExpansionVector@ATL@@QAEHPB_W0@Z$1 10013728 f   Apparatus.obj
 0001:00012730       __ehhandler$?Add@CExpansionVector@ATL@@QAEHPB_W0@Z 10013730 f   Apparatus.obj
 0001:00012750       __unwindfunclet$?AddReplacement@CRegObject@ATL@@UAGJPB_W0@Z$0 10013750 f   Apparatus.obj
 0001:00012758       __ehhandler$?AddReplacement@CRegObject@ATL@@UAGJPB_W0@Z 10013758 f   Apparatus.obj
 0001:00012780       __unwindfunclet$?AddString@CParseBuffer@CRegParser@ATL@@QAEHPB_W@Z$0 10013780 f   Apparatus.obj
 0001:00012788       __ehhandler$?AddString@CParseBuffer@CRegParser@ATL@@QAEHPB_W@Z 10013788 f   Apparatus.obj
 0001:000127b0       __unwindfunclet$?AddValue@CRegParser@ATL@@IAEJAAVCRegKey@2@PB_WPA_W@Z$6 100137b0 f   Apparatus.obj
 0001:000127bb       __unwindfunclet$?AddValue@CRegParser@ATL@@IAEJAAVCRegKey@2@PB_WPA_W@Z$4 100137bb f   Apparatus.obj
 0001:000127c6       __ehhandler$?AddValue@CRegParser@ATL@@IAEJAAVCRegKey@2@PB_WPA_W@Z 100137c6 f   Apparatus.obj
 0001:000127f0       __unwindfunclet$?CreateInstance@?$CComCreator@V?$CComAggObject@VCApparatus@@@ATL@@@ATL@@SGJPAXABU_GUID@@PAPAX@Z$2 100137f0 f   Apparatus.obj
 0001:00012802       __ehhandler$?CreateInstance@?$CComCreator@V?$CComAggObject@VCApparatus@@@ATL@@@ATL@@SGJPAXABU_GUID@@PAPAX@Z 10013802 f   Apparatus.obj
 0001:00012820       __unwindfunclet$?CreateInstance@?$CComCreator@V?$CComObject@VCApparatus@@@ATL@@@ATL@@SGJPAXABU_GUID@@PAPAX@Z$2 10013820 f   Apparatus.obj
 0001:00012832       __ehhandler$?CreateInstance@?$CComCreator@V?$CComObject@VCApparatus@@@ATL@@@ATL@@SGJPAXABU_GUID@@PAPAX@Z 10013832 f   Apparatus.obj
 0001:00012850       __unwindfunclet$?GetTI@CComTypeInfoHolder@ATL@@QAEJK@Z$0 10013850 f   Apparatus.obj
 0001:0001285b       __unwindfunclet$?GetTI@CComTypeInfoHolder@ATL@@QAEJK@Z$2 1001385b f   Apparatus.obj
 0001:00012866       __unwindfunclet$?GetTI@CComTypeInfoHolder@ATL@@QAEJK@Z$3 10013866 f   Apparatus.obj
 0001:00012871       __unwindfunclet$?GetTI@CComTypeInfoHolder@ATL@@QAEJK@Z$4 10013871 f   Apparatus.obj
 0001:0001287c       __unwindfunclet$?GetTI@CComTypeInfoHolder@ATL@@QAEJK@Z$5 1001387c f   Apparatus.obj
 0001:00012882       __unwindfunclet$?GetTI@CComTypeInfoHolder@ATL@@QAEJK@Z$6 10013882 f   Apparatus.obj
 0001:00012888       __unwindfunclet$?GetTI@CComTypeInfoHolder@ATL@@QAEJK@Z$7 10013888 f   Apparatus.obj
 0001:0001288e       __ehhandler$?GetTI@CComTypeInfoHolder@ATL@@QAEJK@Z 1001388e f   Apparatus.obj
 0001:000128c0       __unwindfunclet$?IsEqualObject@?$CComPtrBase@UITypeInfo@@@ATL@@QAE_NPAUIUnknown@@@Z$0 100138c0 f   Apparatus.obj
 0001:000128c6       __unwindfunclet$?IsEqualObject@?$CComPtrBase@UITypeInfo@@@ATL@@QAE_NPAUIUnknown@@@Z$1 100138c6 f   Apparatus.obj
 0001:000128cc       __ehhandler$?IsEqualObject@?$CComPtrBase@UITypeInfo@@@ATL@@QAE_NPAUIUnknown@@@Z 100138cc f   Apparatus.obj
 0001:000128f0       __unwindfunclet$?LoadNameCache@CComTypeInfoHolder@ATL@@QAEJPAUITypeInfo@@@Z$0 100138f0 f   Apparatus.obj
 0001:00012902       __unwindfunclet$?LoadNameCache@CComTypeInfoHolder@ATL@@QAEJPAUITypeInfo@@@Z$1 10013902 f   Apparatus.obj
 0001:0001290a       __ehhandler$?LoadNameCache@CComTypeInfoHolder@ATL@@QAEJPAUITypeInfo@@@Z 1001390a f   Apparatus.obj
 0001:00012930       __unwindfunclet$?PreProcessBuffer@CRegParser@ATL@@QAEJPA_WPAPA_W@Z$0 10013930 f   Apparatus.obj
 0001:00012938       __ehhandler$?PreProcessBuffer@CRegParser@ATL@@QAEJPA_WPAPA_W@Z 10013938 f   Apparatus.obj
 0001:00012960       __unwindfunclet$?RegisterFromResource@CRegObject@ATL@@IAEJPB_W00H@Z$8 10013960 f   Apparatus.obj
 0001:0001296b       __unwindfunclet$?RegisterFromResource@CRegObject@ATL@@IAEJPB_W00H@Z$9 1001396b f   Apparatus.obj
 0001:00012976       __ehhandler$?RegisterFromResource@CRegObject@ATL@@IAEJPB_W00H@Z 10013976 f   Apparatus.obj
 0001:000129a0       __unwindfunclet$?RegisterSubkeys@CRegParser@ATL@@IAEJPA_WPAUHKEY__@@HH@Z$2 100139a0 f   Apparatus.obj
 0001:000129ab       __unwindfunclet$?RegisterSubkeys@CRegParser@ATL@@IAEJPA_WPAUHKEY__@@HH@Z$4 100139ab f   Apparatus.obj
 0001:000129b6       __ehhandler$?RegisterSubkeys@CRegParser@ATL@@IAEJPA_WPAUHKEY__@@HH@Z 100139b6 f   Apparatus.obj
 0001:000129e0       __unwindfunclet$?ResourceRegister@CRegObject@ATL@@QAGJPB_WI0@Z$0 100139e0 f   Apparatus.obj
 0001:000129e0       __unwindfunclet$?ResourceUnregister@CRegObject@ATL@@QAGJPB_WI0@Z$0 100139e0 f   Apparatus.obj
 0001:000129e8       __ehhandler$?ResourceUnregister@CRegObject@ATL@@QAGJPB_WI0@Z 100139e8 f   Apparatus.obj
 0001:000129e8       __ehhandler$?ResourceRegister@CRegObject@ATL@@QAGJPB_WI0@Z 100139e8 f   Apparatus.obj
 0001:00012a10       __unwindfunclet$??0?$CComAggObject@VCDetectData@@@ATL@@QAE@PAX@Z$0 10013a10 f   DetectData.obj
 0001:00012a1b       __ehhandler$??0?$CComAggObject@VCDetectData@@@ATL@@QAE@PAX@Z 10013a1b f   DetectData.obj
 0001:00012a40       __unwindfunclet$??_G?$CComAggObject@VCDetectData@@@ATL@@UAEPAXI@Z$0 10013a40 f   DetectData.obj
 0001:00012a40       __unwindfunclet$??_G?$CComObject@VCDetectData@@@ATL@@UAEPAXI@Z$0 10013a40 f   DetectData.obj
 0001:00012a46       __ehhandler$??_G?$CComObject@VCDetectData@@@ATL@@UAEPAXI@Z 10013a46 f   DetectData.obj
 0001:00012a46       __ehhandler$??_G?$CComAggObject@VCDetectData@@@ATL@@UAEPAXI@Z 10013a46 f   DetectData.obj
 0001:00012a70       __unwindfunclet$?CreateInstance@?$CComCreator@V?$CComAggObject@VCDetectData@@@ATL@@@ATL@@SGJPAXABU_GUID@@PAPAX@Z$2 10013a70 f   DetectData.obj
 0001:00012a82       __ehhandler$?CreateInstance@?$CComCreator@V?$CComAggObject@VCDetectData@@@ATL@@@ATL@@SGJPAXABU_GUID@@PAPAX@Z 10013a82 f   DetectData.obj
 0001:00012aa0       __unwindfunclet$?CreateInstance@?$CComCreator@V?$CComObject@VCDetectData@@@ATL@@@ATL@@SGJPAXABU_GUID@@PAPAX@Z$2 10013aa0 f   DetectData.obj
 0001:00012ab2       __unwindfunclet$?CreateInstance@?$CComCreator@V?$CComObject@VCDetectData@@@ATL@@@ATL@@SGJPAXABU_GUID@@PAPAX@Z$3 10013ab2 f   DetectData.obj
 0001:00012aba       __ehhandler$?CreateInstance@?$CComCreator@V?$CComObject@VCDetectData@@@ATL@@@ATL@@SGJPAXABU_GUID@@PAPAX@Z 10013aba f   DetectData.obj
 0001:00012ae0       __unwindfunclet$??0?$CComAggObject@VCDetector@@@ATL@@QAE@PAX@Z$0 10013ae0 f   Detector.obj
 0001:00012aeb       __ehhandler$??0?$CComAggObject@VCDetector@@@ATL@@QAE@PAX@Z 10013aeb f   Detector.obj
 0001:00012b10       __ehhandler$??1?$CComObject@VCXRFNetwork@@@ATL@@UAE@XZ 10013b10 f   XRFNetwork.obj
 0001:00012b10       __ehhandler$??1?$CComAggObject@VCXRFNetwork@@@ATL@@UAE@XZ 10013b10 f   XRFNetwork.obj
 0001:00012b10       __ehhandler$??1?$CComObject@VCDetector@@@ATL@@UAE@XZ 10013b10 f   Detector.obj
 0001:00012b10       __ehhandler$??1?$CComAggObject@VCDetector@@@ATL@@UAE@XZ 10013b10 f   Detector.obj
 0001:00012b30       __unwindfunclet$?CreateInstance@?$CComCreator@V?$CComAggObject@VCDetector@@@ATL@@@ATL@@SGJPAXABU_GUID@@PAPAX@Z$2 10013b30 f   Detector.obj
 0001:00012b42       __ehhandler$?CreateInstance@?$CComCreator@V?$CComAggObject@VCDetector@@@ATL@@@ATL@@SGJPAXABU_GUID@@PAPAX@Z 10013b42 f   Detector.obj
 0001:00012b60       __unwindfunclet$?CreateInstance@?$CComCreator@V?$CComObject@VCDetector@@@ATL@@@ATL@@SGJPAXABU_GUID@@PAPAX@Z$2 10013b60 f   Detector.obj
 0001:00012b72       __unwindfunclet$?CreateInstance@?$CComCreator@V?$CComObject@VCDetector@@@ATL@@@ATL@@SGJPAXABU_GUID@@PAPAX@Z$3 10013b72 f   Detector.obj
 0001:00012b7a       __ehhandler$?CreateInstance@?$CComCreator@V?$CComObject@VCDetector@@@ATL@@@ATL@@SGJPAXABU_GUID@@PAPAX@Z 10013b7a f   Detector.obj
 0001:00012ba0       __unwindfunclet$??1?$CAtlDllModuleT@VCXRFNetModule@@@ATL@@UAE@XZ$0 10013ba0 f   dllmain.obj
 0001:00012ba0       __unwindfunclet$?Release@?$CComAggObject@VCXRFNetwork@@@ATL@@UAGKXZ$0 10013ba0 f   XRFNetwork.obj
 0001:00012ba0       __unwindfunclet$?Release@?$CComAggObject@VCDetector@@@ATL@@UAGKXZ$0 10013ba0 f   Detector.obj
 0001:00012ba0       __unwindfunclet$?Release@?$CComObject@VCHighVoltage@@@ATL@@UAGKXZ$0 10013ba0 f   HighVoltage.obj
 0001:00012ba0       __unwindfunclet$?Release@?$CComObject@VCDetectData@@@ATL@@UAGKXZ$0 10013ba0 f   DetectData.obj
 0001:00012ba0       __unwindfunclet$?Release@?$CComAggObject@VCDetectData@@@ATL@@UAGKXZ$0 10013ba0 f   DetectData.obj
 0001:00012ba0       __unwindfunclet$?Release@?$CComAggObject@VCHighVoltage@@@ATL@@UAGKXZ$0 10013ba0 f   HighVoltage.obj
 0001:00012ba0       __unwindfunclet$?Release@?$CComObject@VCMotorControl@@@ATL@@UAGKXZ$0 10013ba0 f   MotorControl.obj
 0001:00012ba0       __unwindfunclet$?Release@?$CComObject@VCApparatus@@@ATL@@UAGKXZ$0 10013ba0 f   Apparatus.obj
 0001:00012ba0       __unwindfunclet$?Release@?$CComObject@VCElectromagnet@@@ATL@@UAGKXZ$0 10013ba0 f   Electromagnet.obj
 0001:00012ba0       __unwindfunclet$?Release@?$CComObject@VCSurfaceSource@@@ATL@@UAGKXZ$0 10013ba0 f   SurfaceSource.obj
 0001:00012ba0       __unwindfunclet$?Release@?$CComObject@VCDetector@@@ATL@@UAGKXZ$0 10013ba0 f   Detector.obj
 0001:00012ba0       __unwindfunclet$?Release@?$CComObject@VCXRFNetwork@@@ATL@@UAGKXZ$0 10013ba0 f   XRFNetwork.obj
 0001:00012ba0       __unwindfunclet$?Cleanup@CComTypeInfoHolder@ATL@@SGXK@Z$0 10013ba0 f   Apparatus.obj
 0001:00012ba0       __unwindfunclet$?Release@?$CComAggObject@VCSurfaceSource@@@ATL@@UAGKXZ$0 10013ba0 f   SurfaceSource.obj
 0001:00012ba0       __unwindfunclet$?Release@?$CComAggObject@VCVacuumPump@@@ATL@@UAGKXZ$0 10013ba0 f   VacuumPump.obj
 0001:00012ba0       __unwindfunclet$?Release@?$CComAggObject@VCMotorControl@@@ATL@@UAGKXZ$0 10013ba0 f   MotorControl.obj
 0001:00012ba0       __unwindfunclet$?Release@?$CComAggObject@VCApparatus@@@ATL@@UAGKXZ$0 10013ba0 f   Apparatus.obj
 0001:00012ba0       __unwindfunclet$?Release@?$CComAggObject@VCXRFRayTube@@@ATL@@UAGKXZ$0 10013ba0 f   XRFRayTube.obj
 0001:00012ba0       __unwindfunclet$?Release@?$CComAggObject@VCHeightLaser@@@ATL@@UAGKXZ$0 10013ba0 f   HeightLaser.obj
 0001:00012ba0       __unwindfunclet$?Release@?$CComAggObject@VCElectromagnet@@@ATL@@UAGKXZ$0 10013ba0 f   Electromagnet.obj
 0001:00012ba0       __unwindfunclet$?erase@?$_Tree@V?$_Tmap_traits@V?$basic_string@_WU?$char_traits@_W@std@@V?$allocator@_W@2@@std@@PAV?$list@PAVIEventListener@@V?$allocator@PAVIEventListener@@@std@@@2@U?$less@V?$basic_string@_WU?$char_traits@_W@std@@V?$allocator@_W@2@@std@@@2@V?$allocator@U?$pair@$$CBV?$basic_string@_WU?$char_traits@_W@std@@V?$allocator@_W@2@@std@@PAV?$list@PAVIEventListener@@V?$allocator@PAVIEventListener@@@std@@@2@@std@@@2@$0A@@std@@@std@@QAE?AV?$_Tree_iterator@V?$_Tree_val@U?$_Tree_simple_types@U?$pair@$$CBV?$basic_string@_WU?$char_traits@_W@std@@V?$allocator@_W@2@@std@@PAV?$list@PAVIEventListener@@V?$allocator@PAVIEventListener@@@std@@@2@@std@@@std@@@std@@@2@V?$_Tree_const_iterator@V?$_Tree_val@U?$_Tree_simple_types@U?$pair@$$CBV?$basic_string@_WU?$char_traits@_W@std@@V?$allocator@_W@2@@std@@PAV?$list@PAVIEventListener@@V?$allocator@PAVIEventListener@@@std@@@2@@std@@@std@@@std@@@2@0@Z$16 10013ba0 f   EventMgr.obj
 0001:00012ba0       __unwindfunclet$?Release@?$CComObject@VCVacuumPump@@@ATL@@UAGKXZ$0 10013ba0 f   VacuumPump.obj
 0001:00012ba0       __unwindfunclet$?Release@?$CComObject@VCXRFRayTube@@@ATL@@UAGKXZ$0 10013ba0 f   XRFRayTube.obj
 0001:00012ba0       __unwindfunclet$?Release@?$CComObject@VCHeightLaser@@@ATL@@UAGKXZ$0 10013ba0 f   HeightLaser.obj
 0001:00012ba6       __ehhandler$?Release@?$CComObject@VCHeightLaser@@@ATL@@UAGKXZ 10013ba6 f   HeightLaser.obj
 0001:00012ba6       __ehhandler$?Release@?$CComObject@VCXRFRayTube@@@ATL@@UAGKXZ 10013ba6 f   XRFRayTube.obj
 0001:00012ba6       __ehhandler$?Release@?$CComAggObject@VCSurfaceSource@@@ATL@@UAGKXZ 10013ba6 f   SurfaceSource.obj
 0001:00012ba6       __ehhandler$?Release@?$CComAggObject@VCVacuumPump@@@ATL@@UAGKXZ 10013ba6 f   VacuumPump.obj
 0001:00012ba6       __ehhandler$?Release@?$CComObject@VCVacuumPump@@@ATL@@UAGKXZ 10013ba6 f   VacuumPump.obj
 0001:00012ba6       __ehhandler$?Release@?$CComAggObject@VCHeightLaser@@@ATL@@UAGKXZ 10013ba6 f   HeightLaser.obj
 0001:00012ba6       __ehhandler$?Release@?$CComAggObject@VCXRFRayTube@@@ATL@@UAGKXZ 10013ba6 f   XRFRayTube.obj
 0001:00012ba6       __ehhandler$?Release@?$CComAggObject@VCMotorControl@@@ATL@@UAGKXZ 10013ba6 f   MotorControl.obj
 0001:00012ba6       __ehhandler$?Release@?$CComObject@VCElectromagnet@@@ATL@@UAGKXZ 10013ba6 f   Electromagnet.obj
 0001:00012ba6       __ehhandler$?Release@?$CComObject@VCMotorControl@@@ATL@@UAGKXZ 10013ba6 f   MotorControl.obj
 0001:00012ba6       __ehhandler$?Release@?$CComAggObject@VCXRFNetwork@@@ATL@@UAGKXZ 10013ba6 f   XRFNetwork.obj
 0001:00012ba6       __ehhandler$?Release@?$CComObject@VCXRFNetwork@@@ATL@@UAGKXZ 10013ba6 f   XRFNetwork.obj
 0001:00012ba6       __ehhandler$?Release@?$CComObject@VCDetectData@@@ATL@@UAGKXZ 10013ba6 f   DetectData.obj
 0001:00012ba6       __ehhandler$?Release@?$CComAggObject@VCDetector@@@ATL@@UAGKXZ 10013ba6 f   Detector.obj
 0001:00012ba6       __ehhandler$?Release@?$CComAggObject@VCElectromagnet@@@ATL@@UAGKXZ 10013ba6 f   Electromagnet.obj
 0001:00012ba6       __ehhandler$??1?$CAtlDllModuleT@VCXRFNetModule@@@ATL@@UAE@XZ 10013ba6 f   dllmain.obj
 0001:00012ba6       __ehhandler$?Release@?$CComObject@VCHighVoltage@@@ATL@@UAGKXZ 10013ba6 f   HighVoltage.obj
 0001:00012ba6       __ehhandler$?Release@?$CComObject@VCDetector@@@ATL@@UAGKXZ 10013ba6 f   Detector.obj
 0001:00012ba6       __ehhandler$?Release@?$CComAggObject@VCDetectData@@@ATL@@UAGKXZ 10013ba6 f   DetectData.obj
 0001:00012ba6       __ehhandler$?Release@?$CComAggObject@VCHighVoltage@@@ATL@@UAGKXZ 10013ba6 f   HighVoltage.obj
 0001:00012ba6       __ehhandler$?Release@?$CComObject@VCApparatus@@@ATL@@UAGKXZ 10013ba6 f   Apparatus.obj
 0001:00012ba6       __ehhandler$?Cleanup@CComTypeInfoHolder@ATL@@SGXK@Z 10013ba6 f   Apparatus.obj
 0001:00012ba6       __ehhandler$?Release@?$CComObject@VCSurfaceSource@@@ATL@@UAGKXZ 10013ba6 f   SurfaceSource.obj
 0001:00012ba6       __ehhandler$?Release@?$CComAggObject@VCApparatus@@@ATL@@UAGKXZ 10013ba6 f   Apparatus.obj
 0001:00012ba6       __ehhandler$?erase@?$_Tree@V?$_Tmap_traits@V?$basic_string@_WU?$char_traits@_W@std@@V?$allocator@_W@2@@std@@PAV?$list@PAVIEventListener@@V?$allocator@PAVIEventListener@@@std@@@2@U?$less@V?$basic_string@_WU?$char_traits@_W@std@@V?$allocator@_W@2@@std@@@2@V?$allocator@U?$pair@$$CBV?$basic_string@_WU?$char_traits@_W@std@@V?$allocator@_W@2@@std@@PAV?$list@PAVIEventListener@@V?$allocator@PAVIEventListener@@@std@@@2@@std@@@2@$0A@@std@@@std@@QAE?AV?$_Tree_iterator@V?$_Tree_val@U?$_Tree_simple_types@U?$pair@$$CBV?$basic_string@_WU?$char_traits@_W@std@@V?$allocator@_W@2@@std@@PAV?$list@PAVIEventListener@@V?$allocator@PAVIEventListener@@@std@@@2@@std@@@std@@@std@@@2@V?$_Tree_const_iterator@V?$_Tree_val@U?$_Tree_simple_types@U?$pair@$$CBV?$basic_string@_WU?$char_traits@_W@std@@V?$allocator@_W@2@@std@@PAV?$list@PAVIEventListener@@V?$allocator@PAVIEventListener@@@std@@@2@@std@@@std@@@std@@@2@0@Z 10013ba6 f   EventMgr.obj
 0001:00012bd0       __unwindfunclet$??__F_AtlComModule@ATL@@YAXXZ$0 10013bd0 f   dllmain.obj
 0001:00012bd0       __unwindfunclet$??R?$less@V?$basic_string@_WU?$char_traits@_W@std@@V?$allocator@_W@2@@std@@@std@@QBE_NABV?$basic_string@_WU?$char_traits@_W@std@@V?$allocator@_W@2@@1@0@Z$0 10013bd0 f   EventMgr.obj
 0001:00012bd6       __ehhandler$??__F_AtlComModule@ATL@@YAXXZ 10013bd6 f   dllmain.obj
 0001:00012bd6       __ehhandler$??R?$less@V?$basic_string@_WU?$char_traits@_W@std@@V?$allocator@_W@2@@std@@@std@@QBE_NABV?$basic_string@_WU?$char_traits@_W@std@@V?$allocator@_W@2@@1@0@Z 10013bd6 f   EventMgr.obj
 0001:00012c00       __unwindfunclet$??0?$CComAggObject@VCElectromagnet@@@ATL@@QAE@PAX@Z$0 10013c00 f   Electromagnet.obj
 0001:00012c0b       __ehhandler$??0?$CComAggObject@VCElectromagnet@@@ATL@@QAE@PAX@Z 10013c0b f   Electromagnet.obj
 0001:00012c30       __unwindfunclet$??0?$CComObject@VCElectromagnet@@@ATL@@QAE@PAX@Z$0 10013c30 f   Electromagnet.obj
 0001:00012c38       __ehhandler$??0?$CComObject@VCElectromagnet@@@ATL@@QAE@PAX@Z 10013c38 f   Electromagnet.obj
 0001:00012c60       __unwindfunclet$?CreateInstance@?$CComCreator@V?$CComAggObject@VCElectromagnet@@@ATL@@@ATL@@SGJPAXABU_GUID@@PAPAX@Z$2 10013c60 f   Electromagnet.obj
 0001:00012c72       __ehhandler$?CreateInstance@?$CComCreator@V?$CComAggObject@VCElectromagnet@@@ATL@@@ATL@@SGJPAXABU_GUID@@PAPAX@Z 10013c72 f   Electromagnet.obj
 0001:00012c90       __unwindfunclet$?CreateInstance@?$CComCreator@V?$CComObject@VCElectromagnet@@@ATL@@@ATL@@SGJPAXABU_GUID@@PAPAX@Z$2 10013c90 f   Electromagnet.obj
 0001:00012ca2       __ehhandler$?CreateInstance@?$CComCreator@V?$CComObject@VCElectromagnet@@@ATL@@@ATL@@SGJPAXABU_GUID@@PAPAX@Z 10013ca2 f   Electromagnet.obj
 0001:00012cc0       __unwindfunclet$??$_Buynode@ABUpiecewise_construct_t@std@@V?$tuple@ABV?$basic_string@_WU?$char_traits@_W@std@@V?$allocator@_W@2@@std@@@2@V?$tuple@$$V@2@@?$_Tree_comp_alloc@V?$_Tmap_traits@V?$basic_string@_WU?$char_traits@_W@std@@V?$allocator@_W@2@@std@@PAV?$list@PAVIEventListener@@V?$allocator@PAVIEventListener@@@std@@@2@U?$less@V?$basic_string@_WU?$char_traits@_W@std@@V?$allocator@_W@2@@std@@@2@V?$allocator@U?$pair@$$CBV?$basic_string@_WU?$char_traits@_W@std@@V?$allocator@_W@2@@std@@PAV?$list@PAVIEventListener@@V?$allocator@PAVIEventListener@@@std@@@2@@std@@@2@$0A@@std@@@std@@QAEPAU?$_Tree_node@U?$pair@$$CBV?$basic_string@_WU?$char_traits@_W@std@@V?$allocator@_W@2@@std@@PAV?$list@PAVIEventListener@@V?$allocator@PAVIEventListener@@@std@@@2@@std@@PAX@1@ABUpiecewise_construct_t@1@$$QAV?$tuple@ABV?$basic_string@_WU?$char_traits@_W@std@@V?$allocator@_W@2@@std@@@1@$$QAV?$tuple@$$V@1@@Z$16 10013cc0 f   EventMgr.obj
 0001:00012cd1       __ehhandler$??$_Buynode@ABUpiecewise_construct_t@std@@V?$tuple@ABV?$basic_string@_WU?$char_traits@_W@std@@V?$allocator@_W@2@@std@@@2@V?$tuple@$$V@2@@?$_Tree_comp_alloc@V?$_Tmap_traits@V?$basic_string@_WU?$char_traits@_W@std@@V?$allocator@_W@2@@std@@PAV?$list@PAVIEventListener@@V?$allocator@PAVIEventListener@@@std@@@2@U?$less@V?$basic_string@_WU?$char_traits@_W@std@@V?$allocator@_W@2@@std@@@2@V?$allocator@U?$pair@$$CBV?$basic_string@_WU?$char_traits@_W@std@@V?$allocator@_W@2@@std@@PAV?$list@PAVIEventListener@@V?$allocator@PAVIEventListener@@@std@@@2@@std@@@2@$0A@@std@@@std@@QAEPAU?$_Tree_node@U?$pair@$$CBV?$basic_string@_WU?$char_traits@_W@std@@V?$allocator@_W@2@@std@@PAV?$list@PAVIEventListener@@V?$allocator@PAVIEventListener@@@std@@@2@@std@@PAX@1@ABUpiecewise_construct_t@1@$$QAV?$tuple@ABV?$basic_string@_WU?$char_traits@_W@std@@V?$allocator@_W@2@@std@@@1@$$QAV?$tuple@$$V@1@@Z 10013cd1 f   EventMgr.obj
 0001:00012cf0       __unwindfunclet$??$_Buynode@ABV?$basic_string@_WU?$char_traits@_W@std@@V?$allocator@_W@2@@std@@@?$_List_buy@V?$basic_string@_WU?$char_traits@_W@std@@V?$allocator@_W@2@@std@@V?$allocator@V?$basic_string@_WU?$char_traits@_W@std@@V?$allocator@_W@2@@std@@@2@@std@@QAEPAU?$_List_node@V?$basic_string@_WU?$char_traits@_W@std@@V?$allocator@_W@2@@std@@PAX@1@PAU21@0ABV?$basic_string@_WU?$char_traits@_W@std@@V?$allocator@_W@2@@1@@Z$9 10013cf0 f   EventMgr.obj
 0001:00012d01       __ehhandler$??$_Buynode@ABV?$basic_string@_WU?$char_traits@_W@std@@V?$allocator@_W@2@@std@@@?$_List_buy@V?$basic_string@_WU?$char_traits@_W@std@@V?$allocator@_W@2@@std@@V?$allocator@V?$basic_string@_WU?$char_traits@_W@std@@V?$allocator@_W@2@@std@@@2@@std@@QAEPAU?$_List_node@V?$basic_string@_WU?$char_traits@_W@std@@V?$allocator@_W@2@@std@@PAX@1@PAU21@0ABV?$basic_string@_WU?$char_traits@_W@std@@V?$allocator@_W@2@@1@@Z 10013d01 f   EventMgr.obj
 0001:00012d20       __unwindfunclet$??$_Insert_hint@AAU?$pair@$$CBV?$basic_string@_WU?$char_traits@_W@std@@V?$allocator@_W@2@@std@@PAV?$list@PAVIEventListener@@V?$allocator@PAVIEventListener@@@std@@@2@@std@@PAU?$_Tree_node@U?$pair@$$CBV?$basic_string@_WU?$char_traits@_W@std@@V?$allocator@_W@2@@std@@PAV?$list@PAVIEventListener@@V?$allocator@PAVIEventListener@@@std@@@2@@std@@PAX@2@@?$_Tree@V?$_Tmap_traits@V?$basic_string@_WU?$char_traits@_W@std@@V?$allocator@_W@2@@std@@PAV?$list@PAVIEventListener@@V?$allocator@PAVIEventListener@@@std@@@2@U?$less@V?$basic_string@_WU?$char_traits@_W@std@@V?$allocator@_W@2@@std@@@2@V?$allocator@U?$pair@$$CBV?$basic_string@_WU?$char_traits@_W@std@@V?$allocator@_W@2@@std@@PAV?$list@PAVIEventListener@@V?$allocator@PAVIEventListener@@@std@@@2@@std@@@2@$0A@@std@@@std@@IAE?AV?$_Tree_iterator@V?$_Tree_val@U?$_Tree_simple_types@U?$pair@$$CBV?$basic_string@_WU?$char_traits@_W@std@@V?$allocator@_W@2@@std@@PAV?$list@PAVIEventListener@@V?$allocator@PAVIEventListener@@@std@@@2@@std@@@std@@@std@@@1@V?$_Tree_const_iterator@V?$_Tree_val@U?$_Tree_simple_types@U?$pair@$$CBV?$basic_string@_WU?$char_traits@_W@std@@V?$allocator@_W@2@@std@@PAV?$list@PAVIEventListener@@V?$allocator@PAVIEventListener@@@std@@@2@@std@@@std@@@std@@@1@AAU?$pair@$$CBV?$basic_string@_WU?$char_traits@_W@std@@V?$allocator@_W@2@@std@@PAV?$list@PAVIEventListener@@V?$allocator@PAVIEventListener@@@std@@@2@@1@PAU?$_Tree_node@U?$pair@$$CBV?$basic_string@_WU?$char_traits@_W@std@@V?$allocator@_W@2@@std@@PAV?$list@PAVIEventListener@@V?$allocator@PAVIEventListener@@@std@@@2@@std@@PAX@1@@Z$84 10013d20 f   EventMgr.obj
 0001:00012d26       __ehhandler$??$_Insert_hint@AAU?$pair@$$CBV?$basic_string@_WU?$char_traits@_W@std@@V?$allocator@_W@2@@std@@PAV?$list@PAVIEventListener@@V?$allocator@PAVIEventListener@@@std@@@2@@std@@PAU?$_Tree_node@U?$pair@$$CBV?$basic_string@_WU?$char_traits@_W@std@@V?$allocator@_W@2@@std@@PAV?$list@PAVIEventListener@@V?$allocator@PAVIEventListener@@@std@@@2@@std@@PAX@2@@?$_Tree@V?$_Tmap_traits@V?$basic_string@_WU?$char_traits@_W@std@@V?$allocator@_W@2@@std@@PAV?$list@PAVIEventListener@@V?$allocator@PAVIEventListener@@@std@@@2@U?$less@V?$basic_string@_WU?$char_traits@_W@std@@V?$allocator@_W@2@@std@@@2@V?$allocator@U?$pair@$$CBV?$basic_string@_WU?$char_traits@_W@std@@V?$allocator@_W@2@@std@@PAV?$list@PAVIEventListener@@V?$allocator@PAVIEventListener@@@std@@@2@@std@@@2@$0A@@std@@@std@@IAE?AV?$_Tree_iterator@V?$_Tree_val@U?$_Tree_simple_types@U?$pair@$$CBV?$basic_string@_WU?$char_traits@_W@std@@V?$allocator@_W@2@@std@@PAV?$list@PAVIEventListener@@V?$allocator@PAVIEventListener@@@std@@@2@@std@@@std@@@std@@@1@V?$_Tree_const_iterator@V?$_Tree_val@U?$_Tree_simple_types@U?$pair@$$CBV?$basic_string@_WU?$char_traits@_W@std@@V?$allocator@_W@2@@std@@PAV?$list@PAVIEventListener@@V?$allocator@PAVIEventListener@@@std@@@2@@std@@@std@@@std@@@1@AAU?$pair@$$CBV?$basic_string@_WU?$char_traits@_W@std@@V?$allocator@_W@2@@std@@PAV?$list@PAVIEventListener@@V?$allocator@PAVIEventListener@@@std@@@2@@1@PAU?$_Tree_node@U?$pair@$$CBV?$basic_string@_WU?$char_traits@_W@std@@V?$allocator@_W@2@@std@@PAV?$list@PAVIEventListener@@V?$allocator@PAVIEventListener@@@std@@@2@@std@@PAX@1@@Z 10013d26 f   EventMgr.obj
 0001:00012d50       __unwindfunclet$??$_Insert_nohint@AAU?$pair@$$CBV?$basic_string@_WU?$char_traits@_W@std@@V?$allocator@_W@2@@std@@PAV?$list@PAVIEventListener@@V?$allocator@PAVIEventListener@@@std@@@2@@std@@PAU?$_Tree_node@U?$pair@$$CBV?$basic_string@_WU?$char_traits@_W@std@@V?$allocator@_W@2@@std@@PAV?$list@PAVIEventListener@@V?$allocator@PAVIEventListener@@@std@@@2@@std@@PAX@2@@?$_Tree@V?$_Tmap_traits@V?$basic_string@_WU?$char_traits@_W@std@@V?$allocator@_W@2@@std@@PAV?$list@PAVIEventListener@@V?$allocator@PAVIEventListener@@@std@@@2@U?$less@V?$basic_string@_WU?$char_traits@_W@std@@V?$allocator@_W@2@@std@@@2@V?$allocator@U?$pair@$$CBV?$basic_string@_WU?$char_traits@_W@std@@V?$allocator@_W@2@@std@@PAV?$list@PAVIEventListener@@V?$allocator@PAVIEventListener@@@std@@@2@@std@@@2@$0A@@std@@@std@@IAE?AU?$pair@V?$_Tree_iterator@V?$_Tree_val@U?$_Tree_simple_types@U?$pair@$$CBV?$basic_string@_WU?$char_traits@_W@std@@V?$allocator@_W@2@@std@@PAV?$list@PAVIEventListener@@V?$allocator@PAVIEventListener@@@std@@@2@@std@@@std@@@std@@@std@@_N@1@_NAAU?$pair@$$CBV?$basic_string@_WU?$char_traits@_W@std@@V?$allocator@_W@2@@std@@PAV?$list@PAVIEventListener@@V?$allocator@PAVIEventListener@@@std@@@2@@1@PAU?$_Tree_node@U?$pair@$$CBV?$basic_string@_WU?$char_traits@_W@std@@V?$allocator@_W@2@@std@@PAV?$list@PAVIEventListener@@V?$allocator@PAVIEventListener@@@std@@@2@@std@@PAX@1@@Z$12 10013d50 f   EventMgr.obj
 0001:00012d56       __unwindfunclet$??$_Insert_nohint@AAU?$pair@$$CBV?$basic_string@_WU?$char_traits@_W@std@@V?$allocator@_W@2@@std@@PAV?$list@PAVIEventListener@@V?$allocator@PAVIEventListener@@@std@@@2@@std@@PAU?$_Tree_node@U?$pair@$$CBV?$basic_string@_WU?$char_traits@_W@std@@V?$allocator@_W@2@@std@@PAV?$list@PAVIEventListener@@V?$allocator@PAVIEventListener@@@std@@@2@@std@@PAX@2@@?$_Tree@V?$_Tmap_traits@V?$basic_string@_WU?$char_traits@_W@std@@V?$allocator@_W@2@@std@@PAV?$list@PAVIEventListener@@V?$allocator@PAVIEventListener@@@std@@@2@U?$less@V?$basic_string@_WU?$char_traits@_W@std@@V?$allocator@_W@2@@std@@@2@V?$allocator@U?$pair@$$CBV?$basic_string@_WU?$char_traits@_W@std@@V?$allocator@_W@2@@std@@PAV?$list@PAVIEventListener@@V?$allocator@PAVIEventListener@@@std@@@2@@std@@@2@$0A@@std@@@std@@IAE?AU?$pair@V?$_Tree_iterator@V?$_Tree_val@U?$_Tree_simple_types@U?$pair@$$CBV?$basic_string@_WU?$char_traits@_W@std@@V?$allocator@_W@2@@std@@PAV?$list@PAVIEventListener@@V?$allocator@PAVIEventListener@@@std@@@2@@std@@@std@@@std@@@std@@_N@1@_NAAU?$pair@$$CBV?$basic_string@_WU?$char_traits@_W@std@@V?$allocator@_W@2@@std@@PAV?$list@PAVIEventListener@@V?$allocator@PAVIEventListener@@@std@@@2@@1@PAU?$_Tree_node@U?$pair@$$CBV?$basic_string@_WU?$char_traits@_W@std@@V?$allocator@_W@2@@std@@PAV?$list@PAVIEventListener@@V?$allocator@PAVIEventListener@@@std@@@2@@std@@PAX@1@@Z$26 10013d56 f   EventMgr.obj
 0001:00012d5c       __unwindfunclet$??$_Insert_nohint@AAU?$pair@$$CBV?$basic_string@_WU?$char_traits@_W@std@@V?$allocator@_W@2@@std@@PAV?$list@PAVIEventListener@@V?$allocator@PAVIEventListener@@@std@@@2@@std@@PAU?$_Tree_node@U?$pair@$$CBV?$basic_string@_WU?$char_traits@_W@std@@V?$allocator@_W@2@@std@@PAV?$list@PAVIEventListener@@V?$allocator@PAVIEventListener@@@std@@@2@@std@@PAX@2@@?$_Tree@V?$_Tmap_traits@V?$basic_string@_WU?$char_traits@_W@std@@V?$allocator@_W@2@@std@@PAV?$list@PAVIEventListener@@V?$allocator@PAVIEventListener@@@std@@@2@U?$less@V?$basic_string@_WU?$char_traits@_W@std@@V?$allocator@_W@2@@std@@@2@V?$allocator@U?$pair@$$CBV?$basic_string@_WU?$char_traits@_W@std@@V?$allocator@_W@2@@std@@PAV?$list@PAVIEventListener@@V?$allocator@PAVIEventListener@@@std@@@2@@std@@@2@$0A@@std@@@std@@IAE?AU?$pair@V?$_Tree_iterator@V?$_Tree_val@U?$_Tree_simple_types@U?$pair@$$CBV?$basic_string@_WU?$char_traits@_W@std@@V?$allocator@_W@2@@std@@PAV?$list@PAVIEventListener@@V?$allocator@PAVIEventListener@@@std@@@2@@std@@@std@@@std@@@std@@_N@1@_NAAU?$pair@$$CBV?$basic_string@_WU?$char_traits@_W@std@@V?$allocator@_W@2@@std@@PAV?$list@PAVIEventListener@@V?$allocator@PAVIEventListener@@@std@@@2@@1@PAU?$_Tree_node@U?$pair@$$CBV?$basic_string@_WU?$char_traits@_W@std@@V?$allocator@_W@2@@std@@PAV?$list@PAVIEventListener@@V?$allocator@PAVIEventListener@@@std@@@2@@std@@PAX@1@@Z$59 10013d5c f   EventMgr.obj
 0001:00012d62       __ehhandler$??$_Insert_nohint@AAU?$pair@$$CBV?$basic_string@_WU?$char_traits@_W@std@@V?$allocator@_W@2@@std@@PAV?$list@PAVIEventListener@@V?$allocator@PAVIEventListener@@@std@@@2@@std@@PAU?$_Tree_node@U?$pair@$$CBV?$basic_string@_WU?$char_traits@_W@std@@V?$allocator@_W@2@@std@@PAV?$list@PAVIEventListener@@V?$allocator@PAVIEventListener@@@std@@@2@@std@@PAX@2@@?$_Tree@V?$_Tmap_traits@V?$basic_string@_WU?$char_traits@_W@std@@V?$allocator@_W@2@@std@@PAV?$list@PAVIEventListener@@V?$allocator@PAVIEventListener@@@std@@@2@U?$less@V?$basic_string@_WU?$char_traits@_W@std@@V?$allocator@_W@2@@std@@@2@V?$allocator@U?$pair@$$CBV?$basic_string@_WU?$char_traits@_W@std@@V?$allocator@_W@2@@std@@PAV?$list@PAVIEventListener@@V?$allocator@PAVIEventListener@@@std@@@2@@std@@@2@$0A@@std@@@std@@IAE?AU?$pair@V?$_Tree_iterator@V?$_Tree_val@U?$_Tree_simple_types@U?$pair@$$CBV?$basic_string@_WU?$char_traits@_W@std@@V?$allocator@_W@2@@std@@PAV?$list@PAVIEventListener@@V?$allocator@PAVIEventListener@@@std@@@2@@std@@@std@@@std@@@std@@_N@1@_NAAU?$pair@$$CBV?$basic_string@_WU?$char_traits@_W@std@@V?$allocator@_W@2@@std@@PAV?$list@PAVIEventListener@@V?$allocator@PAVIEventListener@@@std@@@2@@1@PAU?$_Tree_node@U?$pair@$$CBV?$basic_string@_WU?$char_traits@_W@std@@V?$allocator@_W@2@@std@@PAV?$list@PAVIEventListener@@V?$allocator@PAVIEventListener@@@std@@@2@@std@@PAX@1@@Z 10013d62 f   EventMgr.obj
 0001:00012d80       __unwindfunclet$??0CEventMgr@@QAE@XZ$0 10013d80 f   EventMgr.obj
 0001:00012d8b       __unwindfunclet$??0CEventMgr@@QAE@XZ$1 10013d8b f   EventMgr.obj
 0001:00012d96       __ehhandler$??0CEventMgr@@QAE@XZ 10013d96 f   EventMgr.obj
 0001:00012dc0       __unwindfunclet$??1CEventMgr@@QAE@XZ$0 10013dc0 f   EventMgr.obj
 0001:00012dc6       __unwindfunclet$??1CEventMgr@@QAE@XZ$1 10013dc6 f   EventMgr.obj
 0001:00012dcc       __ehhandler$??1CEventMgr@@QAE@XZ 10013dcc f   EventMgr.obj
 0001:00012df0       __unwindfunclet$??A?$map@V?$basic_string@_WU?$char_traits@_W@std@@V?$allocator@_W@2@@std@@PAV?$list@PAVIEventListener@@V?$allocator@PAVIEventListener@@@std@@@2@U?$less@V?$basic_string@_WU?$char_traits@_W@std@@V?$allocator@_W@2@@std@@@2@V?$allocator@U?$pair@$$CBV?$basic_string@_WU?$char_traits@_W@std@@V?$allocator@_W@2@@std@@PAV?$list@PAVIEventListener@@V?$allocator@PAVIEventListener@@@std@@@2@@std@@@2@@std@@QAEAAPAV?$list@PAVIEventListener@@V?$allocator@PAVIEventListener@@@std@@@1@ABV?$basic_string@_WU?$char_traits@_W@std@@V?$allocator@_W@2@@1@@Z$13 10013df0 f   EventMgr.obj
 0001:00012df6       __ehhandler$??A?$map@V?$basic_string@_WU?$char_traits@_W@std@@V?$allocator@_W@2@@std@@PAV?$list@PAVIEventListener@@V?$allocator@PAVIEventListener@@@std@@@2@U?$less@V?$basic_string@_WU?$char_traits@_W@std@@V?$allocator@_W@2@@std@@@2@V?$allocator@U?$pair@$$CBV?$basic_string@_WU?$char_traits@_W@std@@V?$allocator@_W@2@@std@@PAV?$list@PAVIEventListener@@V?$allocator@PAVIEventListener@@@std@@@2@@std@@@2@@std@@QAEAAPAV?$list@PAVIEventListener@@V?$allocator@PAVIEventListener@@@std@@@1@ABV?$basic_string@_WU?$char_traits@_W@std@@V?$allocator@_W@2@@1@@Z 10013df6 f   EventMgr.obj
 0001:00012e20       __unwindfunclet$?Hook@CEventMgr@@UAEHPB_WPAVIEventListener@@@Z$0 10013e20 f   EventMgr.obj
 0001:00012e20       __unwindfunclet$?Unhook@CEventMgr@@UAEXPB_WPAVIEventListener@@@Z$0 10013e20 f   EventMgr.obj
 0001:00012e28       __ehhandler$?Unhook@CEventMgr@@UAEXPB_WPAVIEventListener@@@Z 10013e28 f   EventMgr.obj
 0001:00012e28       __ehhandler$?Hook@CEventMgr@@UAEHPB_WPAVIEventListener@@@Z 10013e28 f   EventMgr.obj
 0001:00012e50       __unwindfunclet$?IsTraversal@CEventMgr@@AAEHABV?$basic_string@_WU?$char_traits@_W@std@@V?$allocator@_W@2@@std@@@Z$12 10013e50 f   EventMgr.obj
 0001:00012e50       __unwindfunclet$??$_Lbound@V?$basic_string@_WU?$char_traits@_W@std@@V?$allocator@_W@2@@std@@@?$_Tree@V?$_Tmap_traits@V?$basic_string@_WU?$char_traits@_W@std@@V?$allocator@_W@2@@std@@PAV?$list@PAVIEventListener@@V?$allocator@PAVIEventListener@@@std@@@2@U?$less@V?$basic_string@_WU?$char_traits@_W@std@@V?$allocator@_W@2@@std@@@2@V?$allocator@U?$pair@$$CBV?$basic_string@_WU?$char_traits@_W@std@@V?$allocator@_W@2@@std@@PAV?$list@PAVIEventListener@@V?$allocator@PAVIEventListener@@@std@@@2@@std@@@2@$0A@@std@@@std@@IBEPAU?$_Tree_node@U?$pair@$$CBV?$basic_string@_WU?$char_traits@_W@std@@V?$allocator@_W@2@@std@@PAV?$list@PAVIEventListener@@V?$allocator@PAVIEventListener@@@std@@@2@@std@@PAX@1@ABV?$basic_string@_WU?$char_traits@_W@std@@V?$allocator@_W@2@@1@@Z$10 10013e50 f   EventMgr.obj
 0001:00012e50       __unwindfunclet$?find@?$_Tree@V?$_Tmap_traits@V?$basic_string@_WU?$char_traits@_W@std@@V?$allocator@_W@2@@std@@PAV?$list@PAVIEventListener@@V?$allocator@PAVIEventListener@@@std@@@2@U?$less@V?$basic_string@_WU?$char_traits@_W@std@@V?$allocator@_W@2@@std@@@2@V?$allocator@U?$pair@$$CBV?$basic_string@_WU?$char_traits@_W@std@@V?$allocator@_W@2@@std@@PAV?$list@PAVIEventListener@@V?$allocator@PAVIEventListener@@@std@@@2@@std@@@2@$0A@@std@@@std@@QAE?AV?$_Tree_iterator@V?$_Tree_val@U?$_Tree_simple_types@U?$pair@$$CBV?$basic_string@_WU?$char_traits@_W@std@@V?$allocator@_W@2@@std@@PAV?$list@PAVIEventListener@@V?$allocator@PAVIEventListener@@@std@@@2@@std@@@std@@@std@@@2@ABV?$basic_string@_WU?$char_traits@_W@std@@V?$allocator@_W@2@@2@@Z$13 10013e50 f   EventMgr.obj
 0001:00012e56       __ehhandler$?IsTraversal@CEventMgr@@AAEHABV?$basic_string@_WU?$char_traits@_W@std@@V?$allocator@_W@2@@std@@@Z 10013e56 f   EventMgr.obj
 0001:00012e56       __ehhandler$?find@?$_Tree@V?$_Tmap_traits@V?$basic_string@_WU?$char_traits@_W@std@@V?$allocator@_W@2@@std@@PAV?$list@PAVIEventListener@@V?$allocator@PAVIEventListener@@@std@@@2@U?$less@V?$basic_string@_WU?$char_traits@_W@std@@V?$allocator@_W@2@@std@@@2@V?$allocator@U?$pair@$$CBV?$basic_string@_WU?$char_traits@_W@std@@V?$allocator@_W@2@@std@@PAV?$list@PAVIEventListener@@V?$allocator@PAVIEventListener@@@std@@@2@@std@@@2@$0A@@std@@@std@@QAE?AV?$_Tree_iterator@V?$_Tree_val@U?$_Tree_simple_types@U?$pair@$$CBV?$basic_string@_WU?$char_traits@_W@std@@V?$allocator@_W@2@@std@@PAV?$list@PAVIEventListener@@V?$allocator@PAVIEventListener@@@std@@@2@@std@@@std@@@std@@@2@ABV?$basic_string@_WU?$char_traits@_W@std@@V?$allocator@_W@2@@2@@Z 10013e56 f   EventMgr.obj
 0001:00012e56       __ehhandler$??$_Lbound@V?$basic_string@_WU?$char_traits@_W@std@@V?$allocator@_W@2@@std@@@?$_Tree@V?$_Tmap_traits@V?$basic_string@_WU?$char_traits@_W@std@@V?$allocator@_W@2@@std@@PAV?$list@PAVIEventListener@@V?$allocator@PAVIEventListener@@@std@@@2@U?$less@V?$basic_string@_WU?$char_traits@_W@std@@V?$allocator@_W@2@@std@@@2@V?$allocator@U?$pair@$$CBV?$basic_string@_WU?$char_traits@_W@std@@V?$allocator@_W@2@@std@@PAV?$list@PAVIEventListener@@V?$allocator@PAVIEventListener@@@std@@@2@@std@@@2@$0A@@std@@@std@@IBEPAU?$_Tree_node@U?$pair@$$CBV?$basic_string@_WU?$char_traits@_W@std@@V?$allocator@_W@2@@std@@PAV?$list@PAVIEventListener@@V?$allocator@PAVIEventListener@@@std@@@2@@std@@PAX@1@ABV?$basic_string@_WU?$char_traits@_W@std@@V?$allocator@_W@2@@1@@Z 10013e56 f   EventMgr.obj
 0001:00012e80       __unwindfunclet$?Procedure@CEventMgr@@AAEHPB_WIJ@Z$0 10013e80 f   EventMgr.obj
 0001:00012e88       __unwindfunclet$?Procedure@CEventMgr@@AAEHPB_WIJ@Z$48 10013e88 f   EventMgr.obj
 0001:00012e8e       __ehhandler$?Procedure@CEventMgr@@AAEHPB_WIJ@Z 10013e8e f   EventMgr.obj
 0001:00012ec0       __unwindfunclet$?Register@CEventMgr@@UAEHPB_W@Z$0 10013ec0 f   EventMgr.obj
 0001:00012ec8       __unwindfunclet$?Register@CEventMgr@@UAEHPB_W@Z$1 10013ec8 f   EventMgr.obj
 0001:00012ed7       __ehhandler$?Register@CEventMgr@@UAEHPB_W@Z 10013ed7 f   EventMgr.obj
 0001:00012f00       __unwindfunclet$?EventIsExist@CEventMgr@@UAEHPB_W@Z$0 10013f00 f   EventMgr.obj
 0001:00012f00       __unwindfunclet$?Unregister@CEventMgr@@UAEXPB_W@Z$0 10013f00 f   EventMgr.obj
 0001:00012f08       __ehhandler$?EventIsExist@CEventMgr@@UAEHPB_W@Z 10013f08 f   EventMgr.obj
 0001:00012f08       __ehhandler$?Unregister@CEventMgr@@UAEXPB_W@Z 10013f08 f   EventMgr.obj
 0001:00012f30       __unwindfunclet$??0?$CComAggObject@VCHeightLaser@@@ATL@@QAE@PAX@Z$0 10013f30 f   HeightLaser.obj
 0001:00012f3b       __ehhandler$??0?$CComAggObject@VCHeightLaser@@@ATL@@QAE@PAX@Z 10013f3b f   HeightLaser.obj
 0001:00012f60       __unwindfunclet$??0?$CComObject@VCHeightLaser@@@ATL@@QAE@PAX@Z$0 10013f60 f   HeightLaser.obj
 0001:00012f68       __ehhandler$??0?$CComObject@VCHeightLaser@@@ATL@@QAE@PAX@Z 10013f68 f   HeightLaser.obj
 0001:00012f90       __unwindfunclet$?CreateInstance@?$CComCreator@V?$CComAggObject@VCHeightLaser@@@ATL@@@ATL@@SGJPAXABU_GUID@@PAPAX@Z$2 10013f90 f   HeightLaser.obj
 0001:00012fa2       __ehhandler$?CreateInstance@?$CComCreator@V?$CComAggObject@VCHeightLaser@@@ATL@@@ATL@@SGJPAXABU_GUID@@PAPAX@Z 10013fa2 f   HeightLaser.obj
 0001:00012fc0       __unwindfunclet$?CreateInstance@?$CComCreator@V?$CComObject@VCHeightLaser@@@ATL@@@ATL@@SGJPAXABU_GUID@@PAPAX@Z$2 10013fc0 f   HeightLaser.obj
 0001:00012fd2       __ehhandler$?CreateInstance@?$CComCreator@V?$CComObject@VCHeightLaser@@@ATL@@@ATL@@SGJPAXABU_GUID@@PAPAX@Z 10013fd2 f   HeightLaser.obj
 0001:00012ff0       __unwindfunclet$??0?$CComAggObject@VCHighVoltage@@@ATL@@QAE@PAX@Z$0 10013ff0 f   HighVoltage.obj
 0001:00012ffb       __ehhandler$??0?$CComAggObject@VCHighVoltage@@@ATL@@QAE@PAX@Z 10013ffb f   HighVoltage.obj
 0001:00013020       __unwindfunclet$??0?$CComObject@VCHighVoltage@@@ATL@@QAE@PAX@Z$0 10014020 f   HighVoltage.obj
 0001:00013028       __ehhandler$??0?$CComObject@VCHighVoltage@@@ATL@@QAE@PAX@Z 10014028 f   HighVoltage.obj
 0001:00013050       __unwindfunclet$?CreateInstance@?$CComCreator@V?$CComAggObject@VCHighVoltage@@@ATL@@@ATL@@SGJPAXABU_GUID@@PAPAX@Z$2 10014050 f   HighVoltage.obj
 0001:00013062       __ehhandler$?CreateInstance@?$CComCreator@V?$CComAggObject@VCHighVoltage@@@ATL@@@ATL@@SGJPAXABU_GUID@@PAPAX@Z 10014062 f   HighVoltage.obj
 0001:00013080       __unwindfunclet$?CreateInstance@?$CComCreator@V?$CComObject@VCHighVoltage@@@ATL@@@ATL@@SGJPAXABU_GUID@@PAPAX@Z$2 10014080 f   HighVoltage.obj
 0001:00013092       __ehhandler$?CreateInstance@?$CComCreator@V?$CComObject@VCHighVoltage@@@ATL@@@ATL@@SGJPAXABU_GUID@@PAPAX@Z 10014092 f   HighVoltage.obj
 0001:000130b0       __unwindfunclet$??0?$CComObject@VCMotorControl@@@ATL@@QAE@PAX@Z$0 100140b0 f   MotorControl.obj
 0001:000130b8       __ehhandler$??0?$CComObject@VCMotorControl@@@ATL@@QAE@PAX@Z 100140b8 f   MotorControl.obj
 0001:000130e0       __ehhandler$??1?$CComAggObject@VCHighVoltage@@@ATL@@UAE@XZ 100140e0 f   HighVoltage.obj
 0001:000130e0       __ehhandler$??1?$CComAggObject@VCMotorControl@@@ATL@@UAE@XZ 100140e0 f   MotorControl.obj
 0001:000130e0       __ehhandler$??1?$CComAggObject@VCElectromagnet@@@ATL@@UAE@XZ 100140e0 f   Electromagnet.obj
 0001:000130e0       __ehhandler$??1?$CComObject@VCElectromagnet@@@ATL@@UAE@XZ 100140e0 f   Electromagnet.obj
 0001:000130e0       __ehhandler$??1?$CComObject@VCHighVoltage@@@ATL@@UAE@XZ 100140e0 f   HighVoltage.obj
 0001:000130e0       __ehhandler$??1?$CComAggObject@VCVacuumPump@@@ATL@@UAE@XZ 100140e0 f   VacuumPump.obj
 0001:000130e0       __ehhandler$??1?$CComAggObject@VCHeightLaser@@@ATL@@UAE@XZ 100140e0 f   HeightLaser.obj
 0001:000130e0       __ehhandler$??1?$CComObject@VCHeightLaser@@@ATL@@UAE@XZ 100140e0 f   HeightLaser.obj
 0001:000130e0       __ehhandler$??1?$CComObject@VCApparatus@@@ATL@@UAE@XZ 100140e0 f   Apparatus.obj
 0001:000130e0       __ehhandler$??1?$CComObject@VCSurfaceSource@@@ATL@@UAE@XZ 100140e0 f   SurfaceSource.obj
 0001:000130e0       __ehhandler$??1?$CComObject@VCXRFRayTube@@@ATL@@UAE@XZ 100140e0 f   XRFRayTube.obj
 0001:000130e0       __ehhandler$??1?$CComObject@VCVacuumPump@@@ATL@@UAE@XZ 100140e0 f   VacuumPump.obj
 0001:000130e0       __ehhandler$??1?$CComAggObject@VCSurfaceSource@@@ATL@@UAE@XZ 100140e0 f   SurfaceSource.obj
 0001:000130e0       __ehhandler$??1?$CComAggObject@VCApparatus@@@ATL@@UAE@XZ 100140e0 f   Apparatus.obj
 0001:000130e0       __ehhandler$??1?$CComAggObject@VCXRFRayTube@@@ATL@@UAE@XZ 100140e0 f   XRFRayTube.obj
 0001:000130e0       __ehhandler$??1?$CComObject@VCMotorControl@@@ATL@@UAE@XZ 100140e0 f   MotorControl.obj
 0001:00013100       __unwindfunclet$?CreateInstance@?$CComCreator@V?$CComAggObject@VCMotorControl@@@ATL@@@ATL@@SGJPAXABU_GUID@@PAPAX@Z$2 10014100 f   MotorControl.obj
 0001:00013112       __unwindfunclet$?CreateInstance@?$CComCreator@V?$CComAggObject@VCMotorControl@@@ATL@@@ATL@@SGJPAXABU_GUID@@PAPAX@Z$3 10014112 f   MotorControl.obj
 0001:0001311d       __ehhandler$?CreateInstance@?$CComCreator@V?$CComAggObject@VCMotorControl@@@ATL@@@ATL@@SGJPAXABU_GUID@@PAPAX@Z 1001411d f   MotorControl.obj
 0001:00013140       __unwindfunclet$?CreateInstance@?$CComCreator@V?$CComObject@VCMotorControl@@@ATL@@@ATL@@SGJPAXABU_GUID@@PAPAX@Z$2 10014140 f   MotorControl.obj
 0001:00013152       __ehhandler$?CreateInstance@?$CComCreator@V?$CComObject@VCMotorControl@@@ATL@@@ATL@@SGJPAXABU_GUID@@PAPAX@Z 10014152 f   MotorControl.obj
 0001:00013170       __unwindfunclet$??0?$CComAggObject@VCSurfaceSource@@@ATL@@QAE@PAX@Z$0 10014170 f   SurfaceSource.obj
 0001:0001317b       __ehhandler$??0?$CComAggObject@VCSurfaceSource@@@ATL@@QAE@PAX@Z 1001417b f   SurfaceSource.obj
 0001:000131a0       __unwindfunclet$??0?$CComObject@VCSurfaceSource@@@ATL@@QAE@PAX@Z$0 100141a0 f   SurfaceSource.obj
 0001:000131a8       __ehhandler$??0?$CComObject@VCSurfaceSource@@@ATL@@QAE@PAX@Z 100141a8 f   SurfaceSource.obj
 0001:000131d0       __unwindfunclet$?CreateInstance@?$CComCreator@V?$CComAggObject@VCSurfaceSource@@@ATL@@@ATL@@SGJPAXABU_GUID@@PAPAX@Z$2 100141d0 f   SurfaceSource.obj
 0001:000131e2       __ehhandler$?CreateInstance@?$CComCreator@V?$CComAggObject@VCSurfaceSource@@@ATL@@@ATL@@SGJPAXABU_GUID@@PAPAX@Z 100141e2 f   SurfaceSource.obj
 0001:00013200       __unwindfunclet$?CreateInstance@?$CComCreator@V?$CComObject@VCSurfaceSource@@@ATL@@@ATL@@SGJPAXABU_GUID@@PAPAX@Z$2 10014200 f   SurfaceSource.obj
 0001:00013212       __ehhandler$?CreateInstance@?$CComCreator@V?$CComObject@VCSurfaceSource@@@ATL@@@ATL@@SGJPAXABU_GUID@@PAPAX@Z 10014212 f   SurfaceSource.obj
 0001:00013230       __unwindfunclet$??0?$CComObject@VCVacuumPump@@@ATL@@QAE@PAX@Z$0 10014230 f   VacuumPump.obj
 0001:00013238       __ehhandler$??0?$CComObject@VCVacuumPump@@@ATL@@QAE@PAX@Z 10014238 f   VacuumPump.obj
 0001:00013260       __unwindfunclet$?CreateInstance@?$CComCreator@V?$CComAggObject@VCVacuumPump@@@ATL@@@ATL@@SGJPAXABU_GUID@@PAPAX@Z$2 10014260 f   VacuumPump.obj
 0001:00013272       __unwindfunclet$?CreateInstance@?$CComCreator@V?$CComAggObject@VCVacuumPump@@@ATL@@@ATL@@SGJPAXABU_GUID@@PAPAX@Z$3 10014272 f   VacuumPump.obj
 0001:0001327d       __ehhandler$?CreateInstance@?$CComCreator@V?$CComAggObject@VCVacuumPump@@@ATL@@@ATL@@SGJPAXABU_GUID@@PAPAX@Z 1001427d f   VacuumPump.obj
 0001:000132a0       __unwindfunclet$?CreateInstance@?$CComCreator@V?$CComObject@VCVacuumPump@@@ATL@@@ATL@@SGJPAXABU_GUID@@PAPAX@Z$2 100142a0 f   VacuumPump.obj
 0001:000132b2       __ehhandler$?CreateInstance@?$CComCreator@V?$CComObject@VCVacuumPump@@@ATL@@@ATL@@SGJPAXABU_GUID@@PAPAX@Z 100142b2 f   VacuumPump.obj
 0001:000132d0       __unwindfunclet$?AtlRegisterClassCategoriesHelper@ATL@@YGJABU_GUID@@PBU_ATL_CATMAP_ENTRY@1@H@Z$5 100142d0 f   XRFNet.obj
 0001:000132d6       __ehhandler$?AtlRegisterClassCategoriesHelper@ATL@@YGJABU_GUID@@PBU_ATL_CATMAP_ENTRY@1@H@Z 100142d6 f   XRFNet.obj
 0001:00013300       __unwindfunclet$?AtlRegisterTypeLib@ATL@@YGJPAUHINSTANCE__@@PB_W@Z$1 10014300 f   XRFNet.obj
 0001:00013306       __ehhandler$?AtlRegisterTypeLib@ATL@@YGJPAUHINSTANCE__@@PB_W@Z 10014306 f   XRFNet.obj
 0001:00013330       __unwindfunclet$?AtlUnRegisterTypeLib@ATL@@YGJPAUHINSTANCE__@@PB_W@Z$1 10014330 f   XRFNet.obj
 0001:00013336       __ehhandler$?AtlUnRegisterTypeLib@ATL@@YGJPAUHINSTANCE__@@PB_W@Z 10014336 f   XRFNet.obj
 0001:00013360       __unwindfunclet$??0?$CComAggObject@VCXRFNetwork@@@ATL@@QAE@PAX@Z$0 10014360 f   XRFNetwork.obj
 0001:0001336b       __ehhandler$??0?$CComAggObject@VCXRFNetwork@@@ATL@@QAE@PAX@Z 1001436b f   XRFNetwork.obj
 0001:00013390       __unwindfunclet$?CreateInstance@?$CComCreator@V?$CComAggObject@VCXRFNetwork@@@ATL@@@ATL@@SGJPAXABU_GUID@@PAPAX@Z$2 10014390 f   XRFNetwork.obj
 0001:000133a2       __ehhandler$?CreateInstance@?$CComCreator@V?$CComAggObject@VCXRFNetwork@@@ATL@@@ATL@@SGJPAXABU_GUID@@PAPAX@Z 100143a2 f   XRFNetwork.obj
 0001:000133c0       __unwindfunclet$?CreateInstance@?$CComCreator@V?$CComObject@VCXRFNetwork@@@ATL@@@ATL@@SGJPAXABU_GUID@@PAPAX@Z$2 100143c0 f   XRFNetwork.obj
 0001:000133d2       __unwindfunclet$?CreateInstance@?$CComCreator@V?$CComObject@VCXRFNetwork@@@ATL@@@ATL@@SGJPAXABU_GUID@@PAPAX@Z$3 100143d2 f   XRFNetwork.obj
 0001:000133da       __ehhandler$?CreateInstance@?$CComCreator@V?$CComObject@VCXRFNetwork@@@ATL@@@ATL@@SGJPAXABU_GUID@@PAPAX@Z 100143da f   XRFNetwork.obj
 0001:00013400       __unwindfunclet$?FinalConstruct@CXRFNetwork@@QAEJXZ$0 10014400 f   XRFNetwork.obj
 0001:00013408       __ehhandler$?FinalConstruct@CXRFNetwork@@QAEJXZ 10014408 f   XRFNetwork.obj
 0001:00013430       __unwindfunclet$??0?$CComObject@VCXRFRayTube@@@ATL@@QAE@PAX@Z$0 10014430 f   XRFRayTube.obj
 0001:00013438       __ehhandler$??0?$CComObject@VCXRFRayTube@@@ATL@@QAE@PAX@Z 10014438 f   XRFRayTube.obj
 0001:00013460       __unwindfunclet$?CreateInstance@?$CComCreator@V?$CComAggObject@VCXRFRayTube@@@ATL@@@ATL@@SGJPAXABU_GUID@@PAPAX@Z$2 10014460 f   XRFRayTube.obj
 0001:00013472       __unwindfunclet$?CreateInstance@?$CComCreator@V?$CComAggObject@VCXRFRayTube@@@ATL@@@ATL@@SGJPAXABU_GUID@@PAPAX@Z$3 10014472 f   XRFRayTube.obj
 0001:0001347d       __ehhandler$?CreateInstance@?$CComCreator@V?$CComAggObject@VCXRFRayTube@@@ATL@@@ATL@@SGJPAXABU_GUID@@PAPAX@Z 1001447d f   XRFRayTube.obj
 0001:000134a0       __unwindfunclet$?CreateInstance@?$CComCreator@V?$CComObject@VCXRFRayTube@@@ATL@@@ATL@@SGJPAXABU_GUID@@PAPAX@Z$2 100144a0 f   XRFRayTube.obj
 0001:000134b2       __ehhandler$?CreateInstance@?$CComCreator@V?$CComObject@VCXRFRayTube@@@ATL@@@ATL@@SGJPAXABU_GUID@@PAPAX@Z 100144b2 f   XRFRayTube.obj
 0001:000134cd       __ehhandler$??2@YAPAXIABUnothrow_t@std@@@Z 100144cd f   MSVCRT:new_scalar_nothrow.obj
 0001:000134f0       ??__Fg_strDigitxA@Skyray@@YAXXZ 100144f0 f   SkyrayLib:SkyrayUtil.obj
 0001:00013530       ??__Fg_strDigitxU@Skyray@@YAXXZ 10014530 f   SkyrayLib:SkyrayUtil.obj
 0001:00013580       ??__F_AtlComModule@ATL@@YAXXZ 10014580 f   dllmain.obj
 0001:000135d0       ??__F_AtlModule@@YAXXZ     100145d0 f   dllmain.obj
 0001:000135e0       ??__FgEventApparatusConnected@@YAXXZ 100145e0 f   EventDef.obj
 0001:00013630       ??__FgEventApparatusShutdown@@YAXXZ 10014630 f   EventDef.obj
 0001:00013680       ??__FgEventReceiveDetectorData@@YAXXZ 10014680 f   EventDef.obj
 0001:000136d0       ??__FgEventRemoteConnected@@YAXXZ 100146d0 f   EventDef.obj
 0001:00013720       ??__FgEventRemoteServerShutdown@@YAXXZ 10014720 f   EventDef.obj
 0001:00013770       ??__FgEventRemoteShutdown@@YAXXZ 10014770 f   EventDef.obj
 0001:000137c0       ??__Fg_eventMgr@@YAXXZ     100147c0 f   stdafx.obj
 0001:000137d0       ??__Fg_strApparatus@@YAXXZ 100147d0 f   stdafx.obj
 0001:00013820       ??__Fg_strDetector@@YAXXZ  10014820 f   stdafx.obj
 0001:00013870       ??__Fg_strElectromagnet@@YAXXZ 10014870 f   stdafx.obj
 0001:000138c0       ??__Fg_strHeightLaser@@YAXXZ 100148c0 f   stdafx.obj
 0001:00013910       ??__Fg_strHighVoltage@@YAXXZ 10014910 f   stdafx.obj
 0001:00013960       ??__Fg_strIICControl@@YAXXZ 10014960 f   stdafx.obj
 0001:000139b0       ??__Fg_strMotorControl@@YAXXZ 100149b0 f   stdafx.obj
 0001:00013a00       ??__Fg_strSurfaceSource@@YAXXZ 10014a00 f   stdafx.obj
 0001:00013a50       ??__Fg_strVacuumPump@@YAXXZ 10014a50 f   stdafx.obj
 0001:00013aa0       ??__Fg_strXRayTube@@YAXXZ  10014aa0 f   stdafx.obj
 0001:00013aed       ??__F_AtlBaseModule@ATL@@YAXXZ 10014aed f   atls:atlbase.obj
 0003:00000264       ?_AtlBaseModule$initializer$@ATL@@3P6AXXZA 10016264     atls:atlbase.obj
 0003:00000268       ?_AtlComModule$initializer$@ATL@@3P6AXXZA 10016268     dllmain.obj
 0003:0000026c       ?_AtlModule$initializer$@@3P6AXXZA 1001626c     dllmain.obj
 0003:00000270       ?gEventApparatusConnected$initializer$@@3P6AXXZA 10016270     EventDef.obj
 0003:00000274       ?gEventApparatusShutdown$initializer$@@3P6AXXZA 10016274     EventDef.obj
 0003:00000278       ?gEventRemoteConnected$initializer$@@3P6AXXZA 10016278     EventDef.obj
 0003:0000027c       ?gEventRemoteShutdown$initializer$@@3P6AXXZA 1001627c     EventDef.obj
 0003:00000280       ?gEventRemoteServerShutdown$initializer$@@3P6AXXZA 10016280     EventDef.obj
 0003:00000284       ?gEventReceiveDetectorData$initializer$@@3P6AXXZA 10016284     EventDef.obj
 0003:00000288       ?g_eventMgr$initializer$@@3P6AXXZA 10016288     stdafx.obj
 0003:0000028c       ?g_strHighVoltage$initializer$@@3P6AXXZA 1001628c     stdafx.obj
 0003:00000290       ?g_strVacuumPump$initializer$@@3P6AXXZA 10016290     stdafx.obj
 0003:00000294       ?g_strXRayTube$initializer$@@3P6AXXZA 10016294     stdafx.obj
 0003:00000298       ?g_strMotorControl$initializer$@@3P6AXXZA 10016298     stdafx.obj
 0003:0000029c       ?g_strDetector$initializer$@@3P6AXXZA 1001629c     stdafx.obj
 0003:000002a0       ?g_strElectromagnet$initializer$@@3P6AXXZA 100162a0     stdafx.obj
 0003:000002a4       ?g_strHeightLaser$initializer$@@3P6AXXZA 100162a4     stdafx.obj
 0003:000002a8       ?g_strSurfaceSource$initializer$@@3P6AXXZA 100162a8     stdafx.obj
 0003:000002ac       ?g_strApparatus$initializer$@@3P6AXXZA 100162ac     stdafx.obj
 0003:000002b0       ?g_strIICControl$initializer$@@3P6AXXZA 100162b0     stdafx.obj
 0003:000002b4       ?g_strDigitxA$initializer$@Skyray@@3P6AXXZA 100162b4     SkyrayLib:SkyrayUtil.obj
 0003:000002b8       ?g_strDigitxU$initializer$@Skyray@@3P6AXXZA 100162b8     SkyrayLib:SkyrayUtil.obj
 0003:000002c4       ?__scrt_initialize_tss_var@@3P6AHXZA 100162c4     MSVCRT:thread_safe_statics.obj
 0003:00000344       ?__objMap_CApparatus@@3U_ATL_OBJMAP_ENTRY110@ATL@@B 10016344     Apparatus.obj
 0003:000008e8       ?__objMap_CDetectData@@3U_ATL_OBJMAP_ENTRY110@ATL@@B 100168e8     DetectData.obj
 0003:000009bc       ?__objMap_CDetector@@3U_ATL_OBJMAP_ENTRY110@ATL@@B 100169bc     Detector.obj
 0003:00000b58       _XRFNet__MIDL_TypeFormatString 10016b58     dlldatax.obj
 0003:00000c88       _XRFNet__MIDL_ProcFormatString 10016c88     dlldatax.obj
 0003:000016dc       _IHighVoltage_FormatStringOffsetTable 100176dc     dlldatax.obj
 0003:000016e8       _Object_StubDesc           100176e8     dlldatax.obj
 0003:00001738       _IXRFRayTube_ServerInfo    10017738     dlldatax.obj
 0003:00001758       _IXRFRayTube_ProxyInfo     10017758     dlldatax.obj
 0003:00001770       _IHighVoltage_ServerInfo   10017770     dlldatax.obj
 0003:00001790       _IVacuumPump_ServerInfo    10017790     dlldatax.obj
 0003:000017b0       _IMotorControl_ServerInfo  100177b0     dlldatax.obj
 0003:000017d0       _IElectromagnet_ServerInfo 100177d0     dlldatax.obj
 0003:000017f0       _IElectromagnet_ProxyInfo  100177f0     dlldatax.obj
 0003:00001808       _IHeightLaser_ServerInfo   10017808     dlldatax.obj
 0003:00001828       _ISurfaceSource_ServerInfo 10017828     dlldatax.obj
 0003:00001848       _IDetectData_ServerInfo    10017848     dlldatax.obj
 0003:00001868       _IDetectData_ProxyInfo     10017868     dlldatax.obj
 0003:00001880       _IDetectorCallBack_ServerInfo 10017880     dlldatax.obj
 0003:000018a0       _IDetectorCallBack_ProxyInfo 100178a0     dlldatax.obj
 0003:000018b8       _IDetector_ServerInfo      100178b8     dlldatax.obj
 0003:000018d8       _IDetector_ProxyInfo       100178d8     dlldatax.obj
 0003:000018f0       _INetworkCallBack_ServerInfo 100178f0     dlldatax.obj
 0003:00001910       _INetworkCallBack_ProxyInfo 10017910     dlldatax.obj
 0003:00001928       _IApparatus_ServerInfo     10017928     dlldatax.obj
 0003:00001948       _IApparatus_ProxyInfo      10017948     dlldatax.obj
 0003:00001960       _IXRFNetwork_ServerInfo    10017960     dlldatax.obj
 0003:00001980       _IXRFNetwork_ProxyInfo     10017980     dlldatax.obj
 0003:00001998       _IXRFRayTube_FormatStringOffsetTable 10017998     dlldatax.obj
 0003:000019d8       _IXRFRayTube_table         100179d8     dlldatax.obj
 0003:00001a58       _IHighVoltage_table        10017a58     dlldatax.obj
 0003:00001a68       _IVacuumPump_FormatStringOffsetTable 10017a68     dlldatax.obj
 0003:00001a74       _IVacuumPump_table         10017a74     dlldatax.obj
 0003:00001a84       _IMotorControl_FormatStringOffsetTable 10017a84     dlldatax.obj
 0003:00001a90       _IMotorControl_table       10017a90     dlldatax.obj
 0003:00001aa0       _IElectromagnet_FormatStringOffsetTable 10017aa0     dlldatax.obj
 0003:00001aac       _IElectromagnet_table      10017aac     dlldatax.obj
 0003:00001ac4       _IHeightLaser_FormatStringOffsetTable 10017ac4     dlldatax.obj
 0003:00001ad0       _IHeightLaser_table        10017ad0     dlldatax.obj
 0003:00001ae0       _ISurfaceSource_FormatStringOffsetTable 10017ae0     dlldatax.obj
 0003:00001aec       _ISurfaceSource_table      10017aec     dlldatax.obj
 0003:00001afc       _IDetectData_FormatStringOffsetTable 10017afc     dlldatax.obj
 0003:00001b0c       _IDetectData_table         10017b0c     dlldatax.obj
 0003:00001b28       _IDetectorCallBack_FormatStringOffsetTable 10017b28     dlldatax.obj
 0003:00001b64       _IDetector_FormatStringOffsetTable 10017b64     dlldatax.obj
 0003:00001b7c       _IDetector_table           10017b7c     dlldatax.obj
 0003:00001bac       _INetworkCallBack_FormatStringOffsetTable 10017bac     dlldatax.obj
 0003:00001bf0       _IApparatus_FormatStringOffsetTable 10017bf0     dlldatax.obj
 0003:00001bfc       _IApparatus_table          10017bfc     dlldatax.obj
 0003:00001c14       _IXRFNetwork_FormatStringOffsetTable 10017c14     dlldatax.obj
 0003:00001c50       _IXRFNetwork_table         10017c50     dlldatax.obj
 0003:00001eec       ?__objMap_CElectromagnet@@3U_ATL_OBJMAP_ENTRY110@ATL@@B 10017eec     Electromagnet.obj
 0003:0000210a       ?piecewise_construct@std@@3Upiecewise_construct_t@1@B 1001810a     EventMgr.obj
 0003:00002164       ?__objMap_CHeightLaser@@3U_ATL_OBJMAP_ENTRY110@ATL@@B 10018164     HeightLaser.obj
 0003:00002258       ?__objMap_CHighVoltage@@3U_ATL_OBJMAP_ENTRY110@ATL@@B 10018258     HighVoltage.obj
 0003:0000234c       ?__objMap_CMotorControl@@3U_ATL_OBJMAP_ENTRY110@ATL@@B 1001834c     MotorControl.obj
 0003:000024bc       ?__objMap_CSurfaceSource@@3U_ATL_OBJMAP_ENTRY110@ATL@@B 100184bc     SurfaceSource.obj
 0003:000025b0       ?__objMap_CVacuumPump@@3U_ATL_OBJMAP_ENTRY110@ATL@@B 100185b0     VacuumPump.obj
 0003:0000277c       ?szUserSwitch@?1??DllInstall@@9@8@4QB_WB 1001877c     XRFNet.obj
 0003:00002788       ?__objMap_CXRFNetwork@@3U_ATL_OBJMAP_ENTRY110@ATL@@B 10018788     XRFNetwork.obj
 0003:00002b54       ?__objMap_CXRFRayTube@@3U_ATL_OBJMAP_ENTRY110@ATL@@B 10018b54     XRFRayTube.obj
 0003:00002f14       _GS_ExceptionPointers      10018f14     MSVCRT:gs_report.obj
 0003:00002fa0       _Int32ToUInt32             10018fa0     MSVCRT:_ftol3_.obj
 0003:00002fa8       _DP2to32                   10018fa8     MSVCRT:_ftol3_.obj
 0003:00002fb0       _MantissaMask              10018fb0     MSVCRT:_ftol3_.obj
 0003:00002fb8       _IntegerBit                10018fb8     MSVCRT:_ftol3_.obj
 0003:00002fc0       _SignBit64                 10018fc0     MSVCRT:_ftol3_.obj
 0003:00002fc8       _MinFP64                   10018fc8     MSVCRT:_ftol3_.obj
 0003:00002fd0       _MinInt64                  10018fd0     MSVCRT:_ftol3_.obj
 0003:00002fd8       _MaxInt64                  10018fd8     MSVCRT:_ftol3_.obj
 0003:00002fe0       _MaxUInt64                 10018fe0     MSVCRT:_ftol3_.obj
 0003:00002fe8       _MaxFP32                   10018fe8     MSVCRT:_ftol3_.obj
 0003:00002ff0       _MinFP32                   10018ff0     MSVCRT:_ftol3_.obj
 0003:00002ff8       _MinSubInexact             10018ff8     MSVCRT:_ftol3_.obj
 0003:00003000       _FpExcptTable              10019000     MSVCRT:_ftol3_.obj
 0003:00003010       _i1075                     10019010     MSVCRT:_ftol3_.obj
 0003:00003014       _i1087                     10019014     MSVCRT:_ftol3_.obj
 0003:00003018       _x0800                     10019018     MSVCRT:_ftol3_.obj
 0003:0000301c       _x17FF                     1001901c     MSVCRT:_ftol3_.obj
 0003:00003020       _CWMask                    10019020     MSVCRT:_ftol3_.obj
 0003:00005aa8       __ehfuncinfo$??1?$CComObject@VCElectromagnet@@@ATL@@UAE@XZ 1001baa8     Electromagnet.obj
 0003:00005aa8       __ehfuncinfo$??1?$CComAggObject@VCElectromagnet@@@ATL@@UAE@XZ 1001baa8     Electromagnet.obj
 0003:00005aa8       __ehfuncinfo$??1?$CComAggObject@VCSurfaceSource@@@ATL@@UAE@XZ 1001baa8     SurfaceSource.obj
 0003:00005aa8       __ehfuncinfo$??1?$CComObject@VCVacuumPump@@@ATL@@UAE@XZ 1001baa8     VacuumPump.obj
 0003:00005aa8       __ehfuncinfo$??1?$CComObject@VCXRFRayTube@@@ATL@@UAE@XZ 1001baa8     XRFRayTube.obj
 0003:00005aa8       __ehfuncinfo$??1?$CComAggObject@VCXRFRayTube@@@ATL@@UAE@XZ 1001baa8     XRFRayTube.obj
 0003:00005aa8       __ehfuncinfo$??1?$CComObject@VCXRFNetwork@@@ATL@@UAE@XZ 1001baa8     XRFNetwork.obj
 0003:00005aa8       __ehfuncinfo$??1?$CComObject@VCSurfaceSource@@@ATL@@UAE@XZ 1001baa8     SurfaceSource.obj
 0003:00005aa8       __ehfuncinfo$??1?$CComAggObject@VCMotorControl@@@ATL@@UAE@XZ 1001baa8     MotorControl.obj
 0003:00005aa8       __ehfuncinfo$??1?$CComObject@VCMotorControl@@@ATL@@UAE@XZ 1001baa8     MotorControl.obj
 0003:00005aa8       __ehfuncinfo$??1?$CComAggObject@VCVacuumPump@@@ATL@@UAE@XZ 1001baa8     VacuumPump.obj
 0003:00005aa8       __ehfuncinfo$??1?$CComPtr@UITypeInfo@@@ATL@@QAE@XZ 1001baa8     Apparatus.obj
 0003:00005aa8       __ehfuncinfo$??1?$CComPtr@UITypeInfo2@@@ATL@@QAE@XZ 1001baa8     Apparatus.obj
 0003:00005aa8       __ehfuncinfo$??1?$CComAggObject@VCApparatus@@@ATL@@UAE@XZ 1001baa8     Apparatus.obj
 0003:00005aa8       __ehfuncinfo$??1?$CComObject@VCApparatus@@@ATL@@UAE@XZ 1001baa8     Apparatus.obj
 0003:00005aa8       __ehfuncinfo$??1?$CComAggObject@VCHighVoltage@@@ATL@@UAE@XZ 1001baa8     HighVoltage.obj
 0003:00005aa8       __ehfuncinfo$??1?$CComObject@VCHighVoltage@@@ATL@@UAE@XZ 1001baa8     HighVoltage.obj
 0003:00005aa8       __ehfuncinfo$??1?$CComAggObject@VCXRFNetwork@@@ATL@@UAE@XZ 1001baa8     XRFNetwork.obj
 0003:00005aa8       __ehfuncinfo$??1?$CComAggObject@VCDetector@@@ATL@@UAE@XZ 1001baa8     Detector.obj
 0003:00005aa8       __ehfuncinfo$??1?$CComAggObject@VCHeightLaser@@@ATL@@UAE@XZ 1001baa8     HeightLaser.obj
 0003:00005aa8       __ehfuncinfo$??4?$basic_string@_WU?$char_traits@_W@std@@V?$allocator@_W@2@@std@@QAEAAV01@$$QAV01@@Z 1001baa8     SkyrayLib:SkyrayUtil.obj
 0003:00005aa8       __ehfuncinfo$??1?$CComObject@VCHeightLaser@@@ATL@@UAE@XZ 1001baa8     HeightLaser.obj
 0003:00005aa8       __ehfuncinfo$??1?$CComObject@VCDetector@@@ATL@@UAE@XZ 1001baa8     Detector.obj
 0003:00005acc       __ehfuncinfo$?_Copy@?$basic_string@_WU?$char_traits@_W@std@@V?$allocator@_W@2@@std@@QAEXII@Z 1001bacc     SkyrayLib:SkyrayUtil.obj
 0003:00005af0       __unwindtable$?_Copy@?$basic_string@_WU?$char_traits@_W@std@@V?$allocator@_W@2@@std@@QAEXII@Z 1001baf0     SkyrayLib:SkyrayUtil.obj
 0003:00005b10       __tryblocktable$?_Copy@?$basic_string@_WU?$char_traits@_W@std@@V?$allocator@_W@2@@std@@QAEXII@Z 1001bb10     SkyrayLib:SkyrayUtil.obj
 0003:00005b38       __catchsym$?_Copy@?$basic_string@_WU?$char_traits@_W@std@@V?$allocator@_W@2@@std@@QAEXII@Z$128 1001bb38     SkyrayLib:SkyrayUtil.obj
 0003:00005b48       __catchsym$?_Copy@?$basic_string@_WU?$char_traits@_W@std@@V?$allocator@_W@2@@std@@QAEXII@Z$129 1001bb48     SkyrayLib:SkyrayUtil.obj
 0003:00005b58       __ehfuncinfo$?_Copy@?$basic_string@DU?$char_traits@D@std@@V?$allocator@D@2@@std@@QAEXII@Z 1001bb58     SkyrayLib:SkyrayUtil.obj
 0003:00005b7c       __unwindtable$?_Copy@?$basic_string@DU?$char_traits@D@std@@V?$allocator@D@2@@std@@QAEXII@Z 1001bb7c     SkyrayLib:SkyrayUtil.obj
 0003:00005b9c       __tryblocktable$?_Copy@?$basic_string@DU?$char_traits@D@std@@V?$allocator@D@2@@std@@QAEXII@Z 1001bb9c     SkyrayLib:SkyrayUtil.obj
 0003:00005bc4       __catchsym$?_Copy@?$basic_string@DU?$char_traits@D@std@@V?$allocator@D@2@@std@@QAEXII@Z$128 1001bbc4     SkyrayLib:SkyrayUtil.obj
 0003:00005bd4       __catchsym$?_Copy@?$basic_string@DU?$char_traits@D@std@@V?$allocator@D@2@@std@@QAEXII@Z$129 1001bbd4     SkyrayLib:SkyrayUtil.obj
 0003:00005be4       __unwindtable$?Add@CExpansionVector@ATL@@QAEHPB_W0@Z 1001bbe4     Apparatus.obj
 0003:00005bf4       __ehfuncinfo$?Add@CExpansionVector@ATL@@QAEHPB_W0@Z 1001bbf4     Apparatus.obj
 0003:00005c18       __unwindtable$?PreProcessBuffer@CRegParser@ATL@@QAEJPA_WPAPA_W@Z 1001bc18     Apparatus.obj
 0003:00005c20       __ehfuncinfo$?PreProcessBuffer@CRegParser@ATL@@QAEJPA_WPAPA_W@Z 1001bc20     Apparatus.obj
 0003:00005c44       __catchsym$?AddValue@CRegParser@ATL@@IAEJAAVCRegKey@2@PB_WPA_W@Z$8 1001bc44     Apparatus.obj
 0003:00005c54       __catchsym$?AddValue@CRegParser@ATL@@IAEJAAVCRegKey@2@PB_WPA_W@Z$7 1001bc54     Apparatus.obj
 0003:00005c64       __ehfuncinfo$?AddValue@CRegParser@ATL@@IAEJAAVCRegKey@2@PB_WPA_W@Z 1001bc64     Apparatus.obj
 0003:00005c88       __tryblocktable$?AddValue@CRegParser@ATL@@IAEJAAVCRegKey@2@PB_WPA_W@Z 1001bc88     Apparatus.obj
 0003:00005cb0       __unwindtable$?AddValue@CRegParser@ATL@@IAEJAAVCRegKey@2@PB_WPA_W@Z 1001bcb0     Apparatus.obj
 0003:00005ce0       __unwindtable$?RegisterSubkeys@CRegParser@ATL@@IAEJPA_WPAUHKEY__@@HH@Z 1001bce0     Apparatus.obj
 0003:00005cf0       __ehfuncinfo$?RegisterSubkeys@CRegParser@ATL@@IAEJPA_WPAUHKEY__@@HH@Z 1001bcf0     Apparatus.obj
 0003:00005d14       __unwindtable$?AddString@CParseBuffer@CRegParser@ATL@@QAEHPB_W@Z 1001bd14     Apparatus.obj
 0003:00005d1c       __ehfuncinfo$?AddString@CParseBuffer@CRegParser@ATL@@QAEHPB_W@Z 1001bd1c     Apparatus.obj
 0003:00005d40       __unwindtable$?AddReplacement@CRegObject@ATL@@UAGJPB_W0@Z 1001bd40     Apparatus.obj
 0003:00005d48       __ehfuncinfo$?AddReplacement@CRegObject@ATL@@UAGJPB_W0@Z 1001bd48     Apparatus.obj
 0003:00005d6c       __unwindtable$?ResourceUnregister@CRegObject@ATL@@QAGJPB_WI0@Z 1001bd6c     Apparatus.obj
 0003:00005d6c       __unwindtable$?ResourceRegister@CRegObject@ATL@@QAGJPB_WI0@Z 1001bd6c     Apparatus.obj
 0003:00005d74       __ehfuncinfo$?ResourceRegister@CRegObject@ATL@@QAGJPB_WI0@Z 1001bd74     Apparatus.obj
 0003:00005d74       __ehfuncinfo$?ResourceUnregister@CRegObject@ATL@@QAGJPB_WI0@Z 1001bd74     Apparatus.obj
 0003:00005d98       __catchsym$?RegisterFromResource@CRegObject@ATL@@IAEJPB_W00H@Z$11 1001bd98     Apparatus.obj
 0003:00005da8       __tryblocktable$?RegisterFromResource@CRegObject@ATL@@IAEJPB_W00H@Z 1001bda8     Apparatus.obj
 0003:00005dbc       __unwindtable$?RegisterFromResource@CRegObject@ATL@@IAEJPB_W00H@Z 1001bdbc     Apparatus.obj
 0003:00005ddc       __ehfuncinfo$?RegisterFromResource@CRegObject@ATL@@IAEJPB_W00H@Z 1001bddc     Apparatus.obj
 0003:00005e00       __unwindtable$?IsEqualObject@?$CComPtrBase@UITypeInfo@@@ATL@@QAE_NPAUIUnknown@@@Z 1001be00     Apparatus.obj
 0003:00005e10       __ehfuncinfo$?IsEqualObject@?$CComPtrBase@UITypeInfo@@@ATL@@QAE_NPAUIUnknown@@@Z 1001be10     Apparatus.obj
 0003:00005e34       __ehfuncinfo$?GetTI@CComTypeInfoHolder@ATL@@QAEJK@Z 1001be34     Apparatus.obj
 0003:00005e58       __unwindtable$?GetTI@CComTypeInfoHolder@ATL@@QAEJK@Z 1001be58     Apparatus.obj
 0003:00005e90       __unwindtable$?LoadNameCache@CComTypeInfoHolder@ATL@@QAEJPAUITypeInfo@@@Z 1001be90     Apparatus.obj
 0003:00005ea0       __ehfuncinfo$?LoadNameCache@CComTypeInfoHolder@ATL@@QAEJPAUITypeInfo@@@Z 1001bea0     Apparatus.obj
 0003:00005ec4       __catchsym$?CreateInstance@?$CComCreator@V?$CComObject@VCApparatus@@@ATL@@@ATL@@SGJPAXABU_GUID@@PAPAX@Z$3 1001bec4     Apparatus.obj
 0003:00005ed4       __tryblocktable$?CreateInstance@?$CComCreator@V?$CComObject@VCApparatus@@@ATL@@@ATL@@SGJPAXABU_GUID@@PAPAX@Z 1001bed4     Apparatus.obj
 0003:00005ee8       __unwindtable$?CreateInstance@?$CComCreator@V?$CComObject@VCApparatus@@@ATL@@@ATL@@SGJPAXABU_GUID@@PAPAX@Z 1001bee8     Apparatus.obj
 0003:00005f00       __ehfuncinfo$?CreateInstance@?$CComCreator@V?$CComObject@VCApparatus@@@ATL@@@ATL@@SGJPAXABU_GUID@@PAPAX@Z 1001bf00     Apparatus.obj
 0003:00005f24       __catchsym$?CreateInstance@?$CComCreator@V?$CComAggObject@VCApparatus@@@ATL@@@ATL@@SGJPAXABU_GUID@@PAPAX@Z$3 1001bf24     Apparatus.obj
 0003:00005f34       __tryblocktable$?CreateInstance@?$CComCreator@V?$CComAggObject@VCApparatus@@@ATL@@@ATL@@SGJPAXABU_GUID@@PAPAX@Z 1001bf34     Apparatus.obj
 0003:00005f48       __unwindtable$?CreateInstance@?$CComCreator@V?$CComAggObject@VCApparatus@@@ATL@@@ATL@@SGJPAXABU_GUID@@PAPAX@Z 1001bf48     Apparatus.obj
 0003:00005f60       __ehfuncinfo$?CreateInstance@?$CComCreator@V?$CComAggObject@VCApparatus@@@ATL@@@ATL@@SGJPAXABU_GUID@@PAPAX@Z 1001bf60     Apparatus.obj
 0003:00005f84       __unwindtable$??0?$CComAggObject@VCApparatus@@@ATL@@QAE@PAX@Z 1001bf84     Apparatus.obj
 0003:00005f8c       __ehfuncinfo$??0?$CComAggObject@VCApparatus@@@ATL@@QAE@PAX@Z 1001bf8c     Apparatus.obj
 0003:00005fb0       __unwindtable$??0?$CComObject@VCApparatus@@@ATL@@QAE@PAX@Z 1001bfb0     Apparatus.obj
 0003:00005fb8       __ehfuncinfo$??0?$CComObject@VCApparatus@@@ATL@@QAE@PAX@Z 1001bfb8     Apparatus.obj
 0003:00006010       __catchsym$?CreateInstance@?$CComCreator@V?$CComObject@VCDetectData@@@ATL@@@ATL@@SGJPAXABU_GUID@@PAPAX@Z$4 1001c010     DetectData.obj
 0003:00006020       __tryblocktable$?CreateInstance@?$CComCreator@V?$CComObject@VCDetectData@@@ATL@@@ATL@@SGJPAXABU_GUID@@PAPAX@Z 1001c020     DetectData.obj
 0003:00006034       __unwindtable$?CreateInstance@?$CComCreator@V?$CComObject@VCDetectData@@@ATL@@@ATL@@SGJPAXABU_GUID@@PAPAX@Z 1001c034     DetectData.obj
 0003:00006054       __ehfuncinfo$?CreateInstance@?$CComCreator@V?$CComObject@VCDetectData@@@ATL@@@ATL@@SGJPAXABU_GUID@@PAPAX@Z 1001c054     DetectData.obj
 0003:00006078       __catchsym$?CreateInstance@?$CComCreator@V?$CComAggObject@VCDetectData@@@ATL@@@ATL@@SGJPAXABU_GUID@@PAPAX@Z$3 1001c078     DetectData.obj
 0003:00006088       __tryblocktable$?CreateInstance@?$CComCreator@V?$CComAggObject@VCDetectData@@@ATL@@@ATL@@SGJPAXABU_GUID@@PAPAX@Z 1001c088     DetectData.obj
 0003:0000609c       __unwindtable$?CreateInstance@?$CComCreator@V?$CComAggObject@VCDetectData@@@ATL@@@ATL@@SGJPAXABU_GUID@@PAPAX@Z 1001c09c     DetectData.obj
 0003:000060b4       __ehfuncinfo$?CreateInstance@?$CComCreator@V?$CComAggObject@VCDetectData@@@ATL@@@ATL@@SGJPAXABU_GUID@@PAPAX@Z 1001c0b4     DetectData.obj
 0003:000060d8       __unwindtable$??0?$CComAggObject@VCDetectData@@@ATL@@QAE@PAX@Z 1001c0d8     DetectData.obj
 0003:000060e0       __ehfuncinfo$??0?$CComAggObject@VCDetectData@@@ATL@@QAE@PAX@Z 1001c0e0     DetectData.obj
 0003:00006104       __unwindtable$??_G?$CComAggObject@VCDetectData@@@ATL@@UAEPAXI@Z 1001c104     DetectData.obj
 0003:00006104       __unwindtable$??_G?$CComObject@VCDetectData@@@ATL@@UAEPAXI@Z 1001c104     DetectData.obj
 0003:0000610c       __ehfuncinfo$??_G?$CComObject@VCDetectData@@@ATL@@UAEPAXI@Z 1001c10c     DetectData.obj
 0003:0000610c       __ehfuncinfo$??_G?$CComAggObject@VCDetectData@@@ATL@@UAEPAXI@Z 1001c10c     DetectData.obj
 0003:00006130       __catchsym$?CreateInstance@?$CComCreator@V?$CComObject@VCDetector@@@ATL@@@ATL@@SGJPAXABU_GUID@@PAPAX@Z$4 1001c130     Detector.obj
 0003:00006140       __tryblocktable$?CreateInstance@?$CComCreator@V?$CComObject@VCDetector@@@ATL@@@ATL@@SGJPAXABU_GUID@@PAPAX@Z 1001c140     Detector.obj
 0003:00006154       __unwindtable$?CreateInstance@?$CComCreator@V?$CComObject@VCDetector@@@ATL@@@ATL@@SGJPAXABU_GUID@@PAPAX@Z 1001c154     Detector.obj
 0003:00006174       __ehfuncinfo$?CreateInstance@?$CComCreator@V?$CComObject@VCDetector@@@ATL@@@ATL@@SGJPAXABU_GUID@@PAPAX@Z 1001c174     Detector.obj
 0003:00006198       __catchsym$?CreateInstance@?$CComCreator@V?$CComAggObject@VCDetector@@@ATL@@@ATL@@SGJPAXABU_GUID@@PAPAX@Z$3 1001c198     Detector.obj
 0003:000061a8       __tryblocktable$?CreateInstance@?$CComCreator@V?$CComAggObject@VCDetector@@@ATL@@@ATL@@SGJPAXABU_GUID@@PAPAX@Z 1001c1a8     Detector.obj
 0003:000061bc       __unwindtable$?CreateInstance@?$CComCreator@V?$CComAggObject@VCDetector@@@ATL@@@ATL@@SGJPAXABU_GUID@@PAPAX@Z 1001c1bc     Detector.obj
 0003:000061d4       __ehfuncinfo$?CreateInstance@?$CComCreator@V?$CComAggObject@VCDetector@@@ATL@@@ATL@@SGJPAXABU_GUID@@PAPAX@Z 1001c1d4     Detector.obj
 0003:000061f8       __unwindtable$??0?$CComAggObject@VCDetector@@@ATL@@QAE@PAX@Z 1001c1f8     Detector.obj
 0003:00006200       __ehfuncinfo$??0?$CComAggObject@VCDetector@@@ATL@@QAE@PAX@Z 1001c200     Detector.obj
 0003:00006224       __unwindtable$??R?$less@V?$basic_string@_WU?$char_traits@_W@std@@V?$allocator@_W@2@@std@@@std@@QBE_NABV?$basic_string@_WU?$char_traits@_W@std@@V?$allocator@_W@2@@1@0@Z 1001c224     EventMgr.obj
 0003:00006224       __unwindtable$??__F_AtlComModule@ATL@@YAXXZ 1001c224     dllmain.obj
 0003:0000622c       __ehfuncinfo$??__F_AtlComModule@ATL@@YAXXZ 1001c22c     dllmain.obj
 0003:0000622c       __ehfuncinfo$??R?$less@V?$basic_string@_WU?$char_traits@_W@std@@V?$allocator@_W@2@@std@@@std@@QBE_NABV?$basic_string@_WU?$char_traits@_W@std@@V?$allocator@_W@2@@1@0@Z 1001c22c     EventMgr.obj
 0003:00006250       __unwindtable$?Release@?$CComObject@VCMotorControl@@@ATL@@UAGKXZ 1001c250     MotorControl.obj
 0003:00006250       __unwindtable$?Release@?$CComObject@VCDetectData@@@ATL@@UAGKXZ 1001c250     DetectData.obj
 0003:00006250       __unwindtable$?Release@?$CComAggObject@VCXRFNetwork@@@ATL@@UAGKXZ 1001c250     XRFNetwork.obj
 0003:00006250       __unwindtable$?Release@?$CComAggObject@VCDetector@@@ATL@@UAGKXZ 1001c250     Detector.obj
 0003:00006250       __unwindtable$?Release@?$CComAggObject@VCDetectData@@@ATL@@UAGKXZ 1001c250     DetectData.obj
 0003:00006250       __unwindtable$?Release@?$CComAggObject@VCElectromagnet@@@ATL@@UAGKXZ 1001c250     Electromagnet.obj
 0003:00006250       __unwindtable$?Release@?$CComAggObject@VCMotorControl@@@ATL@@UAGKXZ 1001c250     MotorControl.obj
 0003:00006250       __unwindtable$?Release@?$CComObject@VCDetector@@@ATL@@UAGKXZ 1001c250     Detector.obj
 0003:00006250       __unwindtable$?Release@?$CComObject@VCSurfaceSource@@@ATL@@UAGKXZ 1001c250     SurfaceSource.obj
 0003:00006250       __unwindtable$?Release@?$CComAggObject@VCApparatus@@@ATL@@UAGKXZ 1001c250     Apparatus.obj
 0003:00006250       __unwindtable$?Release@?$CComObject@VCElectromagnet@@@ATL@@UAGKXZ 1001c250     Electromagnet.obj
 0003:00006250       __unwindtable$?Release@?$CComObject@VCXRFRayTube@@@ATL@@UAGKXZ 1001c250     XRFRayTube.obj
 0003:00006250       __unwindtable$?Cleanup@CComTypeInfoHolder@ATL@@SGXK@Z 1001c250     Apparatus.obj
 0003:00006250       __unwindtable$?erase@?$_Tree@V?$_Tmap_traits@V?$basic_string@_WU?$char_traits@_W@std@@V?$allocator@_W@2@@std@@PAV?$list@PAVIEventListener@@V?$allocator@PAVIEventListener@@@std@@@2@U?$less@V?$basic_string@_WU?$char_traits@_W@std@@V?$allocator@_W@2@@std@@@2@V?$allocator@U?$pair@$$CBV?$basic_string@_WU?$char_traits@_W@std@@V?$allocator@_W@2@@std@@PAV?$list@PAVIEventListener@@V?$allocator@PAVIEventListener@@@std@@@2@@std@@@2@$0A@@std@@@std@@QAE?AV?$_Tree_iterator@V?$_Tree_val@U?$_Tree_simple_types@U?$pair@$$CBV?$basic_string@_WU?$char_traits@_W@std@@V?$allocator@_W@2@@std@@PAV?$list@PAVIEventListener@@V?$allocator@PAVIEventListener@@@std@@@2@@std@@@std@@@std@@@2@V?$_Tree_const_iterator@V?$_Tree_val@U?$_Tree_simple_types@U?$pair@$$CBV?$basic_string@_WU?$char_traits@_W@std@@V?$allocator@_W@2@@std@@PAV?$list@PAVIEventListener@@V?$allocator@PAVIEventListener@@@std@@@2@@std@@@std@@@std@@@2@0@Z 1001c250     EventMgr.obj
 0003:00006250       __unwindtable$?Release@?$CComObject@VCApparatus@@@ATL@@UAGKXZ 1001c250     Apparatus.obj
 0003:00006250       __unwindtable$?Release@?$CComObject@VCXRFNetwork@@@ATL@@UAGKXZ 1001c250     XRFNetwork.obj
 0003:00006250       __unwindtable$?Release@?$CComAggObject@VCSurfaceSource@@@ATL@@UAGKXZ 1001c250     SurfaceSource.obj
 0003:00006250       __unwindtable$??1?$CAtlDllModuleT@VCXRFNetModule@@@ATL@@UAE@XZ 1001c250     dllmain.obj
 0003:00006250       __unwindtable$?Release@?$CComObject@VCHeightLaser@@@ATL@@UAGKXZ 1001c250     HeightLaser.obj
 0003:00006250       __unwindtable$?Release@?$CComAggObject@VCHighVoltage@@@ATL@@UAGKXZ 1001c250     HighVoltage.obj
 0003:00006250       __unwindtable$?Release@?$CComAggObject@VCVacuumPump@@@ATL@@UAGKXZ 1001c250     VacuumPump.obj
 0003:00006250       __unwindtable$?Release@?$CComAggObject@VCHeightLaser@@@ATL@@UAGKXZ 1001c250     HeightLaser.obj
 0003:00006250       __unwindtable$?Release@?$CComAggObject@VCXRFRayTube@@@ATL@@UAGKXZ 1001c250     XRFRayTube.obj
 0003:00006250       __unwindtable$?Release@?$CComObject@VCVacuumPump@@@ATL@@UAGKXZ 1001c250     VacuumPump.obj
 0003:00006250       __unwindtable$?Release@?$CComObject@VCHighVoltage@@@ATL@@UAGKXZ 1001c250     HighVoltage.obj
 0003:00006258       __ehfuncinfo$?Release@?$CComAggObject@VCXRFNetwork@@@ATL@@UAGKXZ 1001c258     XRFNetwork.obj
 0003:00006258       __ehfuncinfo$?Cleanup@CComTypeInfoHolder@ATL@@SGXK@Z 1001c258     Apparatus.obj
 0003:00006258       __ehfuncinfo$?Release@?$CComAggObject@VCApparatus@@@ATL@@UAGKXZ 1001c258     Apparatus.obj
 0003:00006258       __ehfuncinfo$?Release@?$CComObject@VCElectromagnet@@@ATL@@UAGKXZ 1001c258     Electromagnet.obj
 0003:00006258       __ehfuncinfo$?Release@?$CComAggObject@VCDetector@@@ATL@@UAGKXZ 1001c258     Detector.obj
 0003:00006258       __ehfuncinfo$?Release@?$CComAggObject@VCHeightLaser@@@ATL@@UAGKXZ 1001c258     HeightLaser.obj
 0003:00006258       __ehfuncinfo$?Release@?$CComObject@VCXRFRayTube@@@ATL@@UAGKXZ 1001c258     XRFRayTube.obj
 0003:00006258       __ehfuncinfo$?Release@?$CComObject@VCApparatus@@@ATL@@UAGKXZ 1001c258     Apparatus.obj
 0003:00006258       __ehfuncinfo$?Release@?$CComAggObject@VCElectromagnet@@@ATL@@UAGKXZ 1001c258     Electromagnet.obj
 0003:00006258       __ehfuncinfo$?Release@?$CComObject@VCVacuumPump@@@ATL@@UAGKXZ 1001c258     VacuumPump.obj
 0003:00006258       __ehfuncinfo$?Release@?$CComAggObject@VCXRFRayTube@@@ATL@@UAGKXZ 1001c258     XRFRayTube.obj
 0003:00006258       __ehfuncinfo$?Release@?$CComObject@VCHighVoltage@@@ATL@@UAGKXZ 1001c258     HighVoltage.obj
 0003:00006258       __ehfuncinfo$?Release@?$CComAggObject@VCVacuumPump@@@ATL@@UAGKXZ 1001c258     VacuumPump.obj
 0003:00006258       __ehfuncinfo$?Release@?$CComObject@VCDetectData@@@ATL@@UAGKXZ 1001c258     DetectData.obj
 0003:00006258       __ehfuncinfo$?Release@?$CComObject@VCHeightLaser@@@ATL@@UAGKXZ 1001c258     HeightLaser.obj
 0003:00006258       __ehfuncinfo$?Release@?$CComAggObject@VCMotorControl@@@ATL@@UAGKXZ 1001c258     MotorControl.obj
 0003:00006258       __ehfuncinfo$?Release@?$CComAggObject@VCSurfaceSource@@@ATL@@UAGKXZ 1001c258     SurfaceSource.obj
 0003:00006258       __ehfuncinfo$?Release@?$CComAggObject@VCHighVoltage@@@ATL@@UAGKXZ 1001c258     HighVoltage.obj
 0003:00006258       __ehfuncinfo$?Release@?$CComAggObject@VCDetectData@@@ATL@@UAGKXZ 1001c258     DetectData.obj
 0003:00006258       __ehfuncinfo$?Release@?$CComObject@VCXRFNetwork@@@ATL@@UAGKXZ 1001c258     XRFNetwork.obj
 0003:00006258       __ehfuncinfo$?Release@?$CComObject@VCMotorControl@@@ATL@@UAGKXZ 1001c258     MotorControl.obj
 0003:00006258       __ehfuncinfo$?Release@?$CComObject@VCDetector@@@ATL@@UAGKXZ 1001c258     Detector.obj
 0003:00006258       __ehfuncinfo$?erase@?$_Tree@V?$_Tmap_traits@V?$basic_string@_WU?$char_traits@_W@std@@V?$allocator@_W@2@@std@@PAV?$list@PAVIEventListener@@V?$allocator@PAVIEventListener@@@std@@@2@U?$less@V?$basic_string@_WU?$char_traits@_W@std@@V?$allocator@_W@2@@std@@@2@V?$allocator@U?$pair@$$CBV?$basic_string@_WU?$char_traits@_W@std@@V?$allocator@_W@2@@std@@PAV?$list@PAVIEventListener@@V?$allocator@PAVIEventListener@@@std@@@2@@std@@@2@$0A@@std@@@std@@QAE?AV?$_Tree_iterator@V?$_Tree_val@U?$_Tree_simple_types@U?$pair@$$CBV?$basic_string@_WU?$char_traits@_W@std@@V?$allocator@_W@2@@std@@PAV?$list@PAVIEventListener@@V?$allocator@PAVIEventListener@@@std@@@2@@std@@@std@@@std@@@2@V?$_Tree_const_iterator@V?$_Tree_val@U?$_Tree_simple_types@U?$pair@$$CBV?$basic_string@_WU?$char_traits@_W@std@@V?$allocator@_W@2@@std@@PAV?$list@PAVIEventListener@@V?$allocator@PAVIEventListener@@@std@@@2@@std@@@std@@@std@@@2@0@Z 1001c258     EventMgr.obj
 0003:00006258       __ehfuncinfo$??1?$CAtlDllModuleT@VCXRFNetModule@@@ATL@@UAE@XZ 1001c258     dllmain.obj
 0003:00006258       __ehfuncinfo$?Release@?$CComObject@VCSurfaceSource@@@ATL@@UAGKXZ 1001c258     SurfaceSource.obj
 0003:0000627c       __catchsym$?CreateInstance@?$CComCreator@V?$CComObject@VCElectromagnet@@@ATL@@@ATL@@SGJPAXABU_GUID@@PAPAX@Z$3 1001c27c     Electromagnet.obj
 0003:0000628c       __tryblocktable$?CreateInstance@?$CComCreator@V?$CComObject@VCElectromagnet@@@ATL@@@ATL@@SGJPAXABU_GUID@@PAPAX@Z 1001c28c     Electromagnet.obj
 0003:000062a0       __unwindtable$?CreateInstance@?$CComCreator@V?$CComObject@VCElectromagnet@@@ATL@@@ATL@@SGJPAXABU_GUID@@PAPAX@Z 1001c2a0     Electromagnet.obj
 0003:000062b8       __ehfuncinfo$?CreateInstance@?$CComCreator@V?$CComObject@VCElectromagnet@@@ATL@@@ATL@@SGJPAXABU_GUID@@PAPAX@Z 1001c2b8     Electromagnet.obj
 0003:000062dc       __catchsym$?CreateInstance@?$CComCreator@V?$CComAggObject@VCElectromagnet@@@ATL@@@ATL@@SGJPAXABU_GUID@@PAPAX@Z$3 1001c2dc     Electromagnet.obj
 0003:000062ec       __tryblocktable$?CreateInstance@?$CComCreator@V?$CComAggObject@VCElectromagnet@@@ATL@@@ATL@@SGJPAXABU_GUID@@PAPAX@Z 1001c2ec     Electromagnet.obj
 0003:00006300       __unwindtable$?CreateInstance@?$CComCreator@V?$CComAggObject@VCElectromagnet@@@ATL@@@ATL@@SGJPAXABU_GUID@@PAPAX@Z 1001c300     Electromagnet.obj
 0003:00006318       __ehfuncinfo$?CreateInstance@?$CComCreator@V?$CComAggObject@VCElectromagnet@@@ATL@@@ATL@@SGJPAXABU_GUID@@PAPAX@Z 1001c318     Electromagnet.obj
 0003:0000633c       __unwindtable$??0?$CComAggObject@VCElectromagnet@@@ATL@@QAE@PAX@Z 1001c33c     Electromagnet.obj
 0003:00006344       __ehfuncinfo$??0?$CComAggObject@VCElectromagnet@@@ATL@@QAE@PAX@Z 1001c344     Electromagnet.obj
 0003:00006368       __unwindtable$??0?$CComObject@VCElectromagnet@@@ATL@@QAE@PAX@Z 1001c368     Electromagnet.obj
 0003:00006370       __ehfuncinfo$??0?$CComObject@VCElectromagnet@@@ATL@@QAE@PAX@Z 1001c370     Electromagnet.obj
 0003:00006394       __unwindtable$??0CEventMgr@@QAE@XZ 1001c394     EventMgr.obj
 0003:000063a4       __ehfuncinfo$??0CEventMgr@@QAE@XZ 1001c3a4     EventMgr.obj
 0003:000063c8       __unwindtable$??1CEventMgr@@QAE@XZ 1001c3c8     EventMgr.obj
 0003:000063d8       __ehfuncinfo$??1CEventMgr@@QAE@XZ 1001c3d8     EventMgr.obj
 0003:000063fc       __unwindtable$?Register@CEventMgr@@UAEHPB_W@Z 1001c3fc     EventMgr.obj
 0003:0000640c       __ehfuncinfo$?Register@CEventMgr@@UAEHPB_W@Z 1001c40c     EventMgr.obj
 0003:00006430       __unwindtable$?Unregister@CEventMgr@@UAEXPB_W@Z 1001c430     EventMgr.obj
 0003:00006430       __unwindtable$?EventIsExist@CEventMgr@@UAEHPB_W@Z 1001c430     EventMgr.obj
 0003:00006438       __ehfuncinfo$?EventIsExist@CEventMgr@@UAEHPB_W@Z 1001c438     EventMgr.obj
 0003:00006438       __ehfuncinfo$?Unregister@CEventMgr@@UAEXPB_W@Z 1001c438     EventMgr.obj
 0003:0000645c       __unwindtable$?Hook@CEventMgr@@UAEHPB_WPAVIEventListener@@@Z 1001c45c     EventMgr.obj
 0003:0000645c       __unwindtable$?Unhook@CEventMgr@@UAEXPB_WPAVIEventListener@@@Z 1001c45c     EventMgr.obj
 0003:00006464       __ehfuncinfo$?Hook@CEventMgr@@UAEHPB_WPAVIEventListener@@@Z 1001c464     EventMgr.obj
 0003:00006464       __ehfuncinfo$?Unhook@CEventMgr@@UAEXPB_WPAVIEventListener@@@Z 1001c464     EventMgr.obj
 0003:00006488       __unwindtable$??A?$map@V?$basic_string@_WU?$char_traits@_W@std@@V?$allocator@_W@2@@std@@PAV?$list@PAVIEventListener@@V?$allocator@PAVIEventListener@@@std@@@2@U?$less@V?$basic_string@_WU?$char_traits@_W@std@@V?$allocator@_W@2@@std@@@2@V?$allocator@U?$pair@$$CBV?$basic_string@_WU?$char_traits@_W@std@@V?$allocator@_W@2@@std@@PAV?$list@PAVIEventListener@@V?$allocator@PAVIEventListener@@@std@@@2@@std@@@2@@std@@QAEAAPAV?$list@PAVIEventListener@@V?$allocator@PAVIEventListener@@@std@@@1@ABV?$basic_string@_WU?$char_traits@_W@std@@V?$allocator@_W@2@@1@@Z 1001c488     EventMgr.obj
 0003:00006490       __ehfuncinfo$??A?$map@V?$basic_string@_WU?$char_traits@_W@std@@V?$allocator@_W@2@@std@@PAV?$list@PAVIEventListener@@V?$allocator@PAVIEventListener@@@std@@@2@U?$less@V?$basic_string@_WU?$char_traits@_W@std@@V?$allocator@_W@2@@std@@@2@V?$allocator@U?$pair@$$CBV?$basic_string@_WU?$char_traits@_W@std@@V?$allocator@_W@2@@std@@PAV?$list@PAVIEventListener@@V?$allocator@PAVIEventListener@@@std@@@2@@std@@@2@@std@@QAEAAPAV?$list@PAVIEventListener@@V?$allocator@PAVIEventListener@@@std@@@1@ABV?$basic_string@_WU?$char_traits@_W@std@@V?$allocator@_W@2@@1@@Z 1001c490     EventMgr.obj
 0003:000064b4       __unwindtable$?Procedure@CEventMgr@@AAEHPB_WIJ@Z 1001c4b4     EventMgr.obj
 0003:000064c4       __ehfuncinfo$?Procedure@CEventMgr@@AAEHPB_WIJ@Z 1001c4c4     EventMgr.obj
 0003:000064e8       __unwindtable$?IsTraversal@CEventMgr@@AAEHABV?$basic_string@_WU?$char_traits@_W@std@@V?$allocator@_W@2@@std@@@Z 1001c4e8     EventMgr.obj
 0003:000064e8       __unwindtable$?find@?$_Tree@V?$_Tmap_traits@V?$basic_string@_WU?$char_traits@_W@std@@V?$allocator@_W@2@@std@@PAV?$list@PAVIEventListener@@V?$allocator@PAVIEventListener@@@std@@@2@U?$less@V?$basic_string@_WU?$char_traits@_W@std@@V?$allocator@_W@2@@std@@@2@V?$allocator@U?$pair@$$CBV?$basic_string@_WU?$char_traits@_W@std@@V?$allocator@_W@2@@std@@PAV?$list@PAVIEventListener@@V?$allocator@PAVIEventListener@@@std@@@2@@std@@@2@$0A@@std@@@std@@QAE?AV?$_Tree_iterator@V?$_Tree_val@U?$_Tree_simple_types@U?$pair@$$CBV?$basic_string@_WU?$char_traits@_W@std@@V?$allocator@_W@2@@std@@PAV?$list@PAVIEventListener@@V?$allocator@PAVIEventListener@@@std@@@2@@std@@@std@@@std@@@2@ABV?$basic_string@_WU?$char_traits@_W@std@@V?$allocator@_W@2@@2@@Z 1001c4e8     EventMgr.obj
 0003:000064e8       __unwindtable$??$_Lbound@V?$basic_string@_WU?$char_traits@_W@std@@V?$allocator@_W@2@@std@@@?$_Tree@V?$_Tmap_traits@V?$basic_string@_WU?$char_traits@_W@std@@V?$allocator@_W@2@@std@@PAV?$list@PAVIEventListener@@V?$allocator@PAVIEventListener@@@std@@@2@U?$less@V?$basic_string@_WU?$char_traits@_W@std@@V?$allocator@_W@2@@std@@@2@V?$allocator@U?$pair@$$CBV?$basic_string@_WU?$char_traits@_W@std@@V?$allocator@_W@2@@std@@PAV?$list@PAVIEventListener@@V?$allocator@PAVIEventListener@@@std@@@2@@std@@@2@$0A@@std@@@std@@IBEPAU?$_Tree_node@U?$pair@$$CBV?$basic_string@_WU?$char_traits@_W@std@@V?$allocator@_W@2@@std@@PAV?$list@PAVIEventListener@@V?$allocator@PAVIEventListener@@@std@@@2@@std@@PAX@1@ABV?$basic_string@_WU?$char_traits@_W@std@@V?$allocator@_W@2@@1@@Z 1001c4e8     EventMgr.obj
 0003:000064f0       __ehfuncinfo$?IsTraversal@CEventMgr@@AAEHABV?$basic_string@_WU?$char_traits@_W@std@@V?$allocator@_W@2@@std@@@Z 1001c4f0     EventMgr.obj
 0003:000064f0       __ehfuncinfo$??$_Lbound@V?$basic_string@_WU?$char_traits@_W@std@@V?$allocator@_W@2@@std@@@?$_Tree@V?$_Tmap_traits@V?$basic_string@_WU?$char_traits@_W@std@@V?$allocator@_W@2@@std@@PAV?$list@PAVIEventListener@@V?$allocator@PAVIEventListener@@@std@@@2@U?$less@V?$basic_string@_WU?$char_traits@_W@std@@V?$allocator@_W@2@@std@@@2@V?$allocator@U?$pair@$$CBV?$basic_string@_WU?$char_traits@_W@std@@V?$allocator@_W@2@@std@@PAV?$list@PAVIEventListener@@V?$allocator@PAVIEventListener@@@std@@@2@@std@@@2@$0A@@std@@@std@@IBEPAU?$_Tree_node@U?$pair@$$CBV?$basic_string@_WU?$char_traits@_W@std@@V?$allocator@_W@2@@std@@PAV?$list@PAVIEventListener@@V?$allocator@PAVIEventListener@@@std@@@2@@std@@PAX@1@ABV?$basic_string@_WU?$char_traits@_W@std@@V?$allocator@_W@2@@1@@Z 1001c4f0     EventMgr.obj
 0003:000064f0       __ehfuncinfo$?find@?$_Tree@V?$_Tmap_traits@V?$basic_string@_WU?$char_traits@_W@std@@V?$allocator@_W@2@@std@@PAV?$list@PAVIEventListener@@V?$allocator@PAVIEventListener@@@std@@@2@U?$less@V?$basic_string@_WU?$char_traits@_W@std@@V?$allocator@_W@2@@std@@@2@V?$allocator@U?$pair@$$CBV?$basic_string@_WU?$char_traits@_W@std@@V?$allocator@_W@2@@std@@PAV?$list@PAVIEventListener@@V?$allocator@PAVIEventListener@@@std@@@2@@std@@@2@$0A@@std@@@std@@QAE?AV?$_Tree_iterator@V?$_Tree_val@U?$_Tree_simple_types@U?$pair@$$CBV?$basic_string@_WU?$char_traits@_W@std@@V?$allocator@_W@2@@std@@PAV?$list@PAVIEventListener@@V?$allocator@PAVIEventListener@@@std@@@2@@std@@@std@@@std@@@2@ABV?$basic_string@_WU?$char_traits@_W@std@@V?$allocator@_W@2@@2@@Z 1001c4f0     EventMgr.obj
 0003:00006514       __catchsym$??$_Buynode@ABV?$basic_string@_WU?$char_traits@_W@std@@V?$allocator@_W@2@@std@@@?$_List_buy@V?$basic_string@_WU?$char_traits@_W@std@@V?$allocator@_W@2@@std@@V?$allocator@V?$basic_string@_WU?$char_traits@_W@std@@V?$allocator@_W@2@@std@@@2@@std@@QAEPAU?$_List_node@V?$basic_string@_WU?$char_traits@_W@std@@V?$allocator@_W@2@@std@@PAX@1@PAU21@0ABV?$basic_string@_WU?$char_traits@_W@std@@V?$allocator@_W@2@@1@@Z$50 1001c514     EventMgr.obj
 0003:00006524       __tryblocktable$??$_Buynode@ABV?$basic_string@_WU?$char_traits@_W@std@@V?$allocator@_W@2@@std@@@?$_List_buy@V?$basic_string@_WU?$char_traits@_W@std@@V?$allocator@_W@2@@std@@V?$allocator@V?$basic_string@_WU?$char_traits@_W@std@@V?$allocator@_W@2@@std@@@2@@std@@QAEPAU?$_List_node@V?$basic_string@_WU?$char_traits@_W@std@@V?$allocator@_W@2@@std@@PAX@1@PAU21@0ABV?$basic_string@_WU?$char_traits@_W@std@@V?$allocator@_W@2@@1@@Z 1001c524     EventMgr.obj
 0003:00006538       __unwindtable$??$_Buynode@ABV?$basic_string@_WU?$char_traits@_W@std@@V?$allocator@_W@2@@std@@@?$_List_buy@V?$basic_string@_WU?$char_traits@_W@std@@V?$allocator@_W@2@@std@@V?$allocator@V?$basic_string@_WU?$char_traits@_W@std@@V?$allocator@_W@2@@std@@@2@@std@@QAEPAU?$_List_node@V?$basic_string@_WU?$char_traits@_W@std@@V?$allocator@_W@2@@std@@PAX@1@PAU21@0ABV?$basic_string@_WU?$char_traits@_W@std@@V?$allocator@_W@2@@1@@Z 1001c538     EventMgr.obj
 0003:00006550       __ehfuncinfo$??$_Buynode@ABV?$basic_string@_WU?$char_traits@_W@std@@V?$allocator@_W@2@@std@@@?$_List_buy@V?$basic_string@_WU?$char_traits@_W@std@@V?$allocator@_W@2@@std@@V?$allocator@V?$basic_string@_WU?$char_traits@_W@std@@V?$allocator@_W@2@@std@@@2@@std@@QAEPAU?$_List_node@V?$basic_string@_WU?$char_traits@_W@std@@V?$allocator@_W@2@@std@@PAX@1@PAU21@0ABV?$basic_string@_WU?$char_traits@_W@std@@V?$allocator@_W@2@@1@@Z 1001c550     EventMgr.obj
 0003:00006574       __catchsym$??$_Buynode@ABUpiecewise_construct_t@std@@V?$tuple@ABV?$basic_string@_WU?$char_traits@_W@std@@V?$allocator@_W@2@@std@@@2@V?$tuple@$$V@2@@?$_Tree_comp_alloc@V?$_Tmap_traits@V?$basic_string@_WU?$char_traits@_W@std@@V?$allocator@_W@2@@std@@PAV?$list@PAVIEventListener@@V?$allocator@PAVIEventListener@@@std@@@2@U?$less@V?$basic_string@_WU?$char_traits@_W@std@@V?$allocator@_W@2@@std@@@2@V?$allocator@U?$pair@$$CBV?$basic_string@_WU?$char_traits@_W@std@@V?$allocator@_W@2@@std@@PAV?$list@PAVIEventListener@@V?$allocator@PAVIEventListener@@@std@@@2@@std@@@2@$0A@@std@@@std@@QAEPAU?$_Tree_node@U?$pair@$$CBV?$basic_string@_WU?$char_traits@_W@std@@V?$allocator@_W@2@@std@@PAV?$list@PAVIEventListener@@V?$allocator@PAVIEventListener@@@std@@@2@@std@@PAX@1@ABUpiecewise_construct_t@1@$$QAV?$tuple@ABV?$basic_string@_WU?$char_traits@_W@std@@V?$allocator@_W@2@@std@@@1@$$QAV?$tuple@$$V@1@@Z$83 1001c574     EventMgr.obj
 0003:00006584       __tryblocktable$??$_Buynode@ABUpiecewise_construct_t@std@@V?$tuple@ABV?$basic_string@_WU?$char_traits@_W@std@@V?$allocator@_W@2@@std@@@2@V?$tuple@$$V@2@@?$_Tree_comp_alloc@V?$_Tmap_traits@V?$basic_string@_WU?$char_traits@_W@std@@V?$allocator@_W@2@@std@@PAV?$list@PAVIEventListener@@V?$allocator@PAVIEventListener@@@std@@@2@U?$less@V?$basic_string@_WU?$char_traits@_W@std@@V?$allocator@_W@2@@std@@@2@V?$allocator@U?$pair@$$CBV?$basic_string@_WU?$char_traits@_W@std@@V?$allocator@_W@2@@std@@PAV?$list@PAVIEventListener@@V?$allocator@PAVIEventListener@@@std@@@2@@std@@@2@$0A@@std@@@std@@QAEPAU?$_Tree_node@U?$pair@$$CBV?$basic_string@_WU?$char_traits@_W@std@@V?$allocator@_W@2@@std@@PAV?$list@PAVIEventListener@@V?$allocator@PAVIEventListener@@@std@@@2@@std@@PAX@1@ABUpiecewise_construct_t@1@$$QAV?$tuple@ABV?$basic_string@_WU?$char_traits@_W@std@@V?$allocator@_W@2@@std@@@1@$$QAV?$tuple@$$V@1@@Z 1001c584     EventMgr.obj
 0003:00006598       __unwindtable$??$_Buynode@ABUpiecewise_construct_t@std@@V?$tuple@ABV?$basic_string@_WU?$char_traits@_W@std@@V?$allocator@_W@2@@std@@@2@V?$tuple@$$V@2@@?$_Tree_comp_alloc@V?$_Tmap_traits@V?$basic_string@_WU?$char_traits@_W@std@@V?$allocator@_W@2@@std@@PAV?$list@PAVIEventListener@@V?$allocator@PAVIEventListener@@@std@@@2@U?$less@V?$basic_string@_WU?$char_traits@_W@std@@V?$allocator@_W@2@@std@@@2@V?$allocator@U?$pair@$$CBV?$basic_string@_WU?$char_traits@_W@std@@V?$allocator@_W@2@@std@@PAV?$list@PAVIEventListener@@V?$allocator@PAVIEventListener@@@std@@@2@@std@@@2@$0A@@std@@@std@@QAEPAU?$_Tree_node@U?$pair@$$CBV?$basic_string@_WU?$char_traits@_W@std@@V?$allocator@_W@2@@std@@PAV?$list@PAVIEventListener@@V?$allocator@PAVIEventListener@@@std@@@2@@std@@PAX@1@ABUpiecewise_construct_t@1@$$QAV?$tuple@ABV?$basic_string@_WU?$char_traits@_W@std@@V?$allocator@_W@2@@std@@@1@$$QAV?$tuple@$$V@1@@Z 1001c598     EventMgr.obj
 0003:000065b0       __ehfuncinfo$??$_Buynode@ABUpiecewise_construct_t@std@@V?$tuple@ABV?$basic_string@_WU?$char_traits@_W@std@@V?$allocator@_W@2@@std@@@2@V?$tuple@$$V@2@@?$_Tree_comp_alloc@V?$_Tmap_traits@V?$basic_string@_WU?$char_traits@_W@std@@V?$allocator@_W@2@@std@@PAV?$list@PAVIEventListener@@V?$allocator@PAVIEventListener@@@std@@@2@U?$less@V?$basic_string@_WU?$char_traits@_W@std@@V?$allocator@_W@2@@std@@@2@V?$allocator@U?$pair@$$CBV?$basic_string@_WU?$char_traits@_W@std@@V?$allocator@_W@2@@std@@PAV?$list@PAVIEventListener@@V?$allocator@PAVIEventListener@@@std@@@2@@std@@@2@$0A@@std@@@std@@QAEPAU?$_Tree_node@U?$pair@$$CBV?$basic_string@_WU?$char_traits@_W@std@@V?$allocator@_W@2@@std@@PAV?$list@PAVIEventListener@@V?$allocator@PAVIEventListener@@@std@@@2@@std@@PAX@1@ABUpiecewise_construct_t@1@$$QAV?$tuple@ABV?$basic_string@_WU?$char_traits@_W@std@@V?$allocator@_W@2@@std@@@1@$$QAV?$tuple@$$V@1@@Z 1001c5b0     EventMgr.obj
 0003:000065d4       __catchsym$??$_Insert_hint@AAU?$pair@$$CBV?$basic_string@_WU?$char_traits@_W@std@@V?$allocator@_W@2@@std@@PAV?$list@PAVIEventListener@@V?$allocator@PAVIEventListener@@@std@@@2@@std@@PAU?$_Tree_node@U?$pair@$$CBV?$basic_string@_WU?$char_traits@_W@std@@V?$allocator@_W@2@@std@@PAV?$list@PAVIEventListener@@V?$allocator@PAVIEventListener@@@std@@@2@@std@@PAX@2@@?$_Tree@V?$_Tmap_traits@V?$basic_string@_WU?$char_traits@_W@std@@V?$allocator@_W@2@@std@@PAV?$list@PAVIEventListener@@V?$allocator@PAVIEventListener@@@std@@@2@U?$less@V?$basic_string@_WU?$char_traits@_W@std@@V?$allocator@_W@2@@std@@@2@V?$allocator@U?$pair@$$CBV?$basic_string@_WU?$char_traits@_W@std@@V?$allocator@_W@2@@std@@PAV?$list@PAVIEventListener@@V?$allocator@PAVIEventListener@@@std@@@2@@std@@@2@$0A@@std@@@std@@IAE?AV?$_Tree_iterator@V?$_Tree_val@U?$_Tree_simple_types@U?$pair@$$CBV?$basic_string@_WU?$char_traits@_W@std@@V?$allocator@_W@2@@std@@PAV?$list@PAVIEventListener@@V?$allocator@PAVIEventListener@@@std@@@2@@std@@@std@@@std@@@1@V?$_Tree_const_iterator@V?$_Tree_val@U?$_Tree_simple_types@U?$pair@$$CBV?$basic_string@_WU?$char_traits@_W@std@@V?$allocator@_W@2@@std@@PAV?$list@PAVIEventListener@@V?$allocator@PAVIEventListener@@@std@@@2@@std@@@std@@@std@@@1@AAU?$pair@$$CBV?$basic_string@_WU?$char_traits@_W@std@@V?$allocator@_W@2@@std@@PAV?$list@PAVIEventListener@@V?$allocator@PAVIEventListener@@@std@@@2@@1@PAU?$_Tree_node@U?$pair@$$CBV?$basic_string@_WU?$char_traits@_W@std@@V?$allocator@_W@2@@std@@PAV?$list@PAVIEventListener@@V?$allocator@PAVIEventListener@@@std@@@2@@std@@PAX@1@@Z$137 1001c5d4     EventMgr.obj
 0003:000065e4       __tryblocktable$??$_Insert_hint@AAU?$pair@$$CBV?$basic_string@_WU?$char_traits@_W@std@@V?$allocator@_W@2@@std@@PAV?$list@PAVIEventListener@@V?$allocator@PAVIEventListener@@@std@@@2@@std@@PAU?$_Tree_node@U?$pair@$$CBV?$basic_string@_WU?$char_traits@_W@std@@V?$allocator@_W@2@@std@@PAV?$list@PAVIEventListener@@V?$allocator@PAVIEventListener@@@std@@@2@@std@@PAX@2@@?$_Tree@V?$_Tmap_traits@V?$basic_string@_WU?$char_traits@_W@std@@V?$allocator@_W@2@@std@@PAV?$list@PAVIEventListener@@V?$allocator@PAVIEventListener@@@std@@@2@U?$less@V?$basic_string@_WU?$char_traits@_W@std@@V?$allocator@_W@2@@std@@@2@V?$allocator@U?$pair@$$CBV?$basic_string@_WU?$char_traits@_W@std@@V?$allocator@_W@2@@std@@PAV?$list@PAVIEventListener@@V?$allocator@PAVIEventListener@@@std@@@2@@std@@@2@$0A@@std@@@std@@IAE?AV?$_Tree_iterator@V?$_Tree_val@U?$_Tree_simple_types@U?$pair@$$CBV?$basic_string@_WU?$char_traits@_W@std@@V?$allocator@_W@2@@std@@PAV?$list@PAVIEventListener@@V?$allocator@PAVIEventListener@@@std@@@2@@std@@@std@@@std@@@1@V?$_Tree_const_iterator@V?$_Tree_val@U?$_Tree_simple_types@U?$pair@$$CBV?$basic_string@_WU?$char_traits@_W@std@@V?$allocator@_W@2@@std@@PAV?$list@PAVIEventListener@@V?$allocator@PAVIEventListener@@@std@@@2@@std@@@std@@@std@@@1@AAU?$pair@$$CBV?$basic_string@_WU?$char_traits@_W@std@@V?$allocator@_W@2@@std@@PAV?$list@PAVIEventListener@@V?$allocator@PAVIEventListener@@@std@@@2@@1@PAU?$_Tree_node@U?$pair@$$CBV?$basic_string@_WU?$char_traits@_W@std@@V?$allocator@_W@2@@std@@PAV?$list@PAVIEventListener@@V?$allocator@PAVIEventListener@@@std@@@2@@std@@PAX@1@@Z 1001c5e4     EventMgr.obj
 0003:000065f8       __unwindtable$??$_Insert_hint@AAU?$pair@$$CBV?$basic_string@_WU?$char_traits@_W@std@@V?$allocator@_W@2@@std@@PAV?$list@PAVIEventListener@@V?$allocator@PAVIEventListener@@@std@@@2@@std@@PAU?$_Tree_node@U?$pair@$$CBV?$basic_string@_WU?$char_traits@_W@std@@V?$allocator@_W@2@@std@@PAV?$list@PAVIEventListener@@V?$allocator@PAVIEventListener@@@std@@@2@@std@@PAX@2@@?$_Tree@V?$_Tmap_traits@V?$basic_string@_WU?$char_traits@_W@std@@V?$allocator@_W@2@@std@@PAV?$list@PAVIEventListener@@V?$allocator@PAVIEventListener@@@std@@@2@U?$less@V?$basic_string@_WU?$char_traits@_W@std@@V?$allocator@_W@2@@std@@@2@V?$allocator@U?$pair@$$CBV?$basic_string@_WU?$char_traits@_W@std@@V?$allocator@_W@2@@std@@PAV?$list@PAVIEventListener@@V?$allocator@PAVIEventListener@@@std@@@2@@std@@@2@$0A@@std@@@std@@IAE?AV?$_Tree_iterator@V?$_Tree_val@U?$_Tree_simple_types@U?$pair@$$CBV?$basic_string@_WU?$char_traits@_W@std@@V?$allocator@_W@2@@std@@PAV?$list@PAVIEventListener@@V?$allocator@PAVIEventListener@@@std@@@2@@std@@@std@@@std@@@1@V?$_Tree_const_iterator@V?$_Tree_val@U?$_Tree_simple_types@U?$pair@$$CBV?$basic_string@_WU?$char_traits@_W@std@@V?$allocator@_W@2@@std@@PAV?$list@PAVIEventListener@@V?$allocator@PAVIEventListener@@@std@@@2@@std@@@std@@@std@@@1@AAU?$pair@$$CBV?$basic_string@_WU?$char_traits@_W@std@@V?$allocator@_W@2@@std@@PAV?$list@PAVIEventListener@@V?$allocator@PAVIEventListener@@@std@@@2@@1@PAU?$_Tree_node@U?$pair@$$CBV?$basic_string@_WU?$char_traits@_W@std@@V?$allocator@_W@2@@std@@PAV?$list@PAVIEventListener@@V?$allocator@PAVIEventListener@@@std@@@2@@std@@PAX@1@@Z 1001c5f8     EventMgr.obj
 0003:00006618       __ehfuncinfo$??$_Insert_hint@AAU?$pair@$$CBV?$basic_string@_WU?$char_traits@_W@std@@V?$allocator@_W@2@@std@@PAV?$list@PAVIEventListener@@V?$allocator@PAVIEventListener@@@std@@@2@@std@@PAU?$_Tree_node@U?$pair@$$CBV?$basic_string@_WU?$char_traits@_W@std@@V?$allocator@_W@2@@std@@PAV?$list@PAVIEventListener@@V?$allocator@PAVIEventListener@@@std@@@2@@std@@PAX@2@@?$_Tree@V?$_Tmap_traits@V?$basic_string@_WU?$char_traits@_W@std@@V?$allocator@_W@2@@std@@PAV?$list@PAVIEventListener@@V?$allocator@PAVIEventListener@@@std@@@2@U?$less@V?$basic_string@_WU?$char_traits@_W@std@@V?$allocator@_W@2@@std@@@2@V?$allocator@U?$pair@$$CBV?$basic_string@_WU?$char_traits@_W@std@@V?$allocator@_W@2@@std@@PAV?$list@PAVIEventListener@@V?$allocator@PAVIEventListener@@@std@@@2@@std@@@2@$0A@@std@@@std@@IAE?AV?$_Tree_iterator@V?$_Tree_val@U?$_Tree_simple_types@U?$pair@$$CBV?$basic_string@_WU?$char_traits@_W@std@@V?$allocator@_W@2@@std@@PAV?$list@PAVIEventListener@@V?$allocator@PAVIEventListener@@@std@@@2@@std@@@std@@@std@@@1@V?$_Tree_const_iterator@V?$_Tree_val@U?$_Tree_simple_types@U?$pair@$$CBV?$basic_string@_WU?$char_traits@_W@std@@V?$allocator@_W@2@@std@@PAV?$list@PAVIEventListener@@V?$allocator@PAVIEventListener@@@std@@@2@@std@@@std@@@std@@@1@AAU?$pair@$$CBV?$basic_string@_WU?$char_traits@_W@std@@V?$allocator@_W@2@@std@@PAV?$list@PAVIEventListener@@V?$allocator@PAVIEventListener@@@std@@@2@@1@PAU?$_Tree_node@U?$pair@$$CBV?$basic_string@_WU?$char_traits@_W@std@@V?$allocator@_W@2@@std@@PAV?$list@PAVIEventListener@@V?$allocator@PAVIEventListener@@@std@@@2@@std@@PAX@1@@Z 1001c618     EventMgr.obj
 0003:0000663c       __catchsym$??$_Insert_nohint@AAU?$pair@$$CBV?$basic_string@_WU?$char_traits@_W@std@@V?$allocator@_W@2@@std@@PAV?$list@PAVIEventListener@@V?$allocator@PAVIEventListener@@@std@@@2@@std@@PAU?$_Tree_node@U?$pair@$$CBV?$basic_string@_WU?$char_traits@_W@std@@V?$allocator@_W@2@@std@@PAV?$list@PAVIEventListener@@V?$allocator@PAVIEventListener@@@std@@@2@@std@@PAX@2@@?$_Tree@V?$_Tmap_traits@V?$basic_string@_WU?$char_traits@_W@std@@V?$allocator@_W@2@@std@@PAV?$list@PAVIEventListener@@V?$allocator@PAVIEventListener@@@std@@@2@U?$less@V?$basic_string@_WU?$char_traits@_W@std@@V?$allocator@_W@2@@std@@@2@V?$allocator@U?$pair@$$CBV?$basic_string@_WU?$char_traits@_W@std@@V?$allocator@_W@2@@std@@PAV?$list@PAVIEventListener@@V?$allocator@PAVIEventListener@@@std@@@2@@std@@@2@$0A@@std@@@std@@IAE?AU?$pair@V?$_Tree_iterator@V?$_Tree_val@U?$_Tree_simple_types@U?$pair@$$CBV?$basic_string@_WU?$char_traits@_W@std@@V?$allocator@_W@2@@std@@PAV?$list@PAVIEventListener@@V?$allocator@PAVIEventListener@@@std@@@2@@std@@@std@@@std@@@std@@_N@1@_NAAU?$pair@$$CBV?$basic_string@_WU?$char_traits@_W@std@@V?$allocator@_W@2@@std@@PAV?$list@PAVIEventListener@@V?$allocator@PAVIEventListener@@@std@@@2@@1@PAU?$_Tree_node@U?$pair@$$CBV?$basic_string@_WU?$char_traits@_W@std@@V?$allocator@_W@2@@std@@PAV?$list@PAVIEventListener@@V?$allocator@PAVIEventListener@@@std@@@2@@std@@PAX@1@@Z$78 1001c63c     EventMgr.obj
 0003:0000664c       __tryblocktable$??$_Insert_nohint@AAU?$pair@$$CBV?$basic_string@_WU?$char_traits@_W@std@@V?$allocator@_W@2@@std@@PAV?$list@PAVIEventListener@@V?$allocator@PAVIEventListener@@@std@@@2@@std@@PAU?$_Tree_node@U?$pair@$$CBV?$basic_string@_WU?$char_traits@_W@std@@V?$allocator@_W@2@@std@@PAV?$list@PAVIEventListener@@V?$allocator@PAVIEventListener@@@std@@@2@@std@@PAX@2@@?$_Tree@V?$_Tmap_traits@V?$basic_string@_WU?$char_traits@_W@std@@V?$allocator@_W@2@@std@@PAV?$list@PAVIEventListener@@V?$allocator@PAVIEventListener@@@std@@@2@U?$less@V?$basic_string@_WU?$char_traits@_W@std@@V?$allocator@_W@2@@std@@@2@V?$allocator@U?$pair@$$CBV?$basic_string@_WU?$char_traits@_W@std@@V?$allocator@_W@2@@std@@PAV?$list@PAVIEventListener@@V?$allocator@PAVIEventListener@@@std@@@2@@std@@@2@$0A@@std@@@std@@IAE?AU?$pair@V?$_Tree_iterator@V?$_Tree_val@U?$_Tree_simple_types@U?$pair@$$CBV?$basic_string@_WU?$char_traits@_W@std@@V?$allocator@_W@2@@std@@PAV?$list@PAVIEventListener@@V?$allocator@PAVIEventListener@@@std@@@2@@std@@@std@@@std@@@std@@_N@1@_NAAU?$pair@$$CBV?$basic_string@_WU?$char_traits@_W@std@@V?$allocator@_W@2@@std@@PAV?$list@PAVIEventListener@@V?$allocator@PAVIEventListener@@@std@@@2@@1@PAU?$_Tree_node@U?$pair@$$CBV?$basic_string@_WU?$char_traits@_W@std@@V?$allocator@_W@2@@std@@PAV?$list@PAVIEventListener@@V?$allocator@PAVIEventListener@@@std@@@2@@std@@PAX@1@@Z 1001c64c     EventMgr.obj
 0003:00006660       __ehfuncinfo$??$_Insert_nohint@AAU?$pair@$$CBV?$basic_string@_WU?$char_traits@_W@std@@V?$allocator@_W@2@@std@@PAV?$list@PAVIEventListener@@V?$allocator@PAVIEventListener@@@std@@@2@@std@@PAU?$_Tree_node@U?$pair@$$CBV?$basic_string@_WU?$char_traits@_W@std@@V?$allocator@_W@2@@std@@PAV?$list@PAVIEventListener@@V?$allocator@PAVIEventListener@@@std@@@2@@std@@PAX@2@@?$_Tree@V?$_Tmap_traits@V?$basic_string@_WU?$char_traits@_W@std@@V?$allocator@_W@2@@std@@PAV?$list@PAVIEventListener@@V?$allocator@PAVIEventListener@@@std@@@2@U?$less@V?$basic_string@_WU?$char_traits@_W@std@@V?$allocator@_W@2@@std@@@2@V?$allocator@U?$pair@$$CBV?$basic_string@_WU?$char_traits@_W@std@@V?$allocator@_W@2@@std@@PAV?$list@PAVIEventListener@@V?$allocator@PAVIEventListener@@@std@@@2@@std@@@2@$0A@@std@@@std@@IAE?AU?$pair@V?$_Tree_iterator@V?$_Tree_val@U?$_Tree_simple_types@U?$pair@$$CBV?$basic_string@_WU?$char_traits@_W@std@@V?$allocator@_W@2@@std@@PAV?$list@PAVIEventListener@@V?$allocator@PAVIEventListener@@@std@@@2@@std@@@std@@@std@@@std@@_N@1@_NAAU?$pair@$$CBV?$basic_string@_WU?$char_traits@_W@std@@V?$allocator@_W@2@@std@@PAV?$list@PAVIEventListener@@V?$allocator@PAVIEventListener@@@std@@@2@@1@PAU?$_Tree_node@U?$pair@$$CBV?$basic_string@_WU?$char_traits@_W@std@@V?$allocator@_W@2@@std@@PAV?$list@PAVIEventListener@@V?$allocator@PAVIEventListener@@@std@@@2@@std@@PAX@1@@Z 1001c660     EventMgr.obj
 0003:00006684       __unwindtable$??$_Insert_nohint@AAU?$pair@$$CBV?$basic_string@_WU?$char_traits@_W@std@@V?$allocator@_W@2@@std@@PAV?$list@PAVIEventListener@@V?$allocator@PAVIEventListener@@@std@@@2@@std@@PAU?$_Tree_node@U?$pair@$$CBV?$basic_string@_WU?$char_traits@_W@std@@V?$allocator@_W@2@@std@@PAV?$list@PAVIEventListener@@V?$allocator@PAVIEventListener@@@std@@@2@@std@@PAX@2@@?$_Tree@V?$_Tmap_traits@V?$basic_string@_WU?$char_traits@_W@std@@V?$allocator@_W@2@@std@@PAV?$list@PAVIEventListener@@V?$allocator@PAVIEventListener@@@std@@@2@U?$less@V?$basic_string@_WU?$char_traits@_W@std@@V?$allocator@_W@2@@std@@@2@V?$allocator@U?$pair@$$CBV?$basic_string@_WU?$char_traits@_W@std@@V?$allocator@_W@2@@std@@PAV?$list@PAVIEventListener@@V?$allocator@PAVIEventListener@@@std@@@2@@std@@@2@$0A@@std@@@std@@IAE?AU?$pair@V?$_Tree_iterator@V?$_Tree_val@U?$_Tree_simple_types@U?$pair@$$CBV?$basic_string@_WU?$char_traits@_W@std@@V?$allocator@_W@2@@std@@PAV?$list@PAVIEventListener@@V?$allocator@PAVIEventListener@@@std@@@2@@std@@@std@@@std@@@std@@_N@1@_NAAU?$pair@$$CBV?$basic_string@_WU?$char_traits@_W@std@@V?$allocator@_W@2@@std@@PAV?$list@PAVIEventListener@@V?$allocator@PAVIEventListener@@@std@@@2@@1@PAU?$_Tree_node@U?$pair@$$CBV?$basic_string@_WU?$char_traits@_W@std@@V?$allocator@_W@2@@std@@PAV?$list@PAVIEventListener@@V?$allocator@PAVIEventListener@@@std@@@2@@std@@PAX@1@@Z 1001c684     EventMgr.obj
 0003:000066ac       __catchsym$?CreateInstance@?$CComCreator@V?$CComObject@VCHeightLaser@@@ATL@@@ATL@@SGJPAXABU_GUID@@PAPAX@Z$3 1001c6ac     HeightLaser.obj
 0003:000066bc       __tryblocktable$?CreateInstance@?$CComCreator@V?$CComObject@VCHeightLaser@@@ATL@@@ATL@@SGJPAXABU_GUID@@PAPAX@Z 1001c6bc     HeightLaser.obj
 0003:000066d0       __unwindtable$?CreateInstance@?$CComCreator@V?$CComObject@VCHeightLaser@@@ATL@@@ATL@@SGJPAXABU_GUID@@PAPAX@Z 1001c6d0     HeightLaser.obj
 0003:000066e8       __ehfuncinfo$?CreateInstance@?$CComCreator@V?$CComObject@VCHeightLaser@@@ATL@@@ATL@@SGJPAXABU_GUID@@PAPAX@Z 1001c6e8     HeightLaser.obj
 0003:0000670c       __catchsym$?CreateInstance@?$CComCreator@V?$CComAggObject@VCHeightLaser@@@ATL@@@ATL@@SGJPAXABU_GUID@@PAPAX@Z$3 1001c70c     HeightLaser.obj
 0003:0000671c       __tryblocktable$?CreateInstance@?$CComCreator@V?$CComAggObject@VCHeightLaser@@@ATL@@@ATL@@SGJPAXABU_GUID@@PAPAX@Z 1001c71c     HeightLaser.obj
 0003:00006730       __unwindtable$?CreateInstance@?$CComCreator@V?$CComAggObject@VCHeightLaser@@@ATL@@@ATL@@SGJPAXABU_GUID@@PAPAX@Z 1001c730     HeightLaser.obj
 0003:00006748       __ehfuncinfo$?CreateInstance@?$CComCreator@V?$CComAggObject@VCHeightLaser@@@ATL@@@ATL@@SGJPAXABU_GUID@@PAPAX@Z 1001c748     HeightLaser.obj
 0003:0000676c       __unwindtable$??0?$CComAggObject@VCHeightLaser@@@ATL@@QAE@PAX@Z 1001c76c     HeightLaser.obj
 0003:00006774       __ehfuncinfo$??0?$CComAggObject@VCHeightLaser@@@ATL@@QAE@PAX@Z 1001c774     HeightLaser.obj
 0003:00006798       __unwindtable$??0?$CComObject@VCHeightLaser@@@ATL@@QAE@PAX@Z 1001c798     HeightLaser.obj
 0003:000067a0       __ehfuncinfo$??0?$CComObject@VCHeightLaser@@@ATL@@QAE@PAX@Z 1001c7a0     HeightLaser.obj
 0003:000067c4       __catchsym$?CreateInstance@?$CComCreator@V?$CComObject@VCHighVoltage@@@ATL@@@ATL@@SGJPAXABU_GUID@@PAPAX@Z$3 1001c7c4     HighVoltage.obj
 0003:000067d4       __tryblocktable$?CreateInstance@?$CComCreator@V?$CComObject@VCHighVoltage@@@ATL@@@ATL@@SGJPAXABU_GUID@@PAPAX@Z 1001c7d4     HighVoltage.obj
 0003:000067e8       __unwindtable$?CreateInstance@?$CComCreator@V?$CComObject@VCHighVoltage@@@ATL@@@ATL@@SGJPAXABU_GUID@@PAPAX@Z 1001c7e8     HighVoltage.obj
 0003:00006800       __ehfuncinfo$?CreateInstance@?$CComCreator@V?$CComObject@VCHighVoltage@@@ATL@@@ATL@@SGJPAXABU_GUID@@PAPAX@Z 1001c800     HighVoltage.obj
 0003:00006824       __catchsym$?CreateInstance@?$CComCreator@V?$CComAggObject@VCHighVoltage@@@ATL@@@ATL@@SGJPAXABU_GUID@@PAPAX@Z$3 1001c824     HighVoltage.obj
 0003:00006834       __tryblocktable$?CreateInstance@?$CComCreator@V?$CComAggObject@VCHighVoltage@@@ATL@@@ATL@@SGJPAXABU_GUID@@PAPAX@Z 1001c834     HighVoltage.obj
 0003:00006848       __unwindtable$?CreateInstance@?$CComCreator@V?$CComAggObject@VCHighVoltage@@@ATL@@@ATL@@SGJPAXABU_GUID@@PAPAX@Z 1001c848     HighVoltage.obj
 0003:00006860       __ehfuncinfo$?CreateInstance@?$CComCreator@V?$CComAggObject@VCHighVoltage@@@ATL@@@ATL@@SGJPAXABU_GUID@@PAPAX@Z 1001c860     HighVoltage.obj
 0003:00006884       __unwindtable$??0?$CComAggObject@VCHighVoltage@@@ATL@@QAE@PAX@Z 1001c884     HighVoltage.obj
 0003:0000688c       __ehfuncinfo$??0?$CComAggObject@VCHighVoltage@@@ATL@@QAE@PAX@Z 1001c88c     HighVoltage.obj
 0003:000068b0       __unwindtable$??0?$CComObject@VCHighVoltage@@@ATL@@QAE@PAX@Z 1001c8b0     HighVoltage.obj
 0003:000068b8       __ehfuncinfo$??0?$CComObject@VCHighVoltage@@@ATL@@QAE@PAX@Z 1001c8b8     HighVoltage.obj
 0003:000068dc       __catchsym$?CreateInstance@?$CComCreator@V?$CComObject@VCMotorControl@@@ATL@@@ATL@@SGJPAXABU_GUID@@PAPAX@Z$3 1001c8dc     MotorControl.obj
 0003:000068ec       __tryblocktable$?CreateInstance@?$CComCreator@V?$CComObject@VCMotorControl@@@ATL@@@ATL@@SGJPAXABU_GUID@@PAPAX@Z 1001c8ec     MotorControl.obj
 0003:00006900       __unwindtable$?CreateInstance@?$CComCreator@V?$CComObject@VCMotorControl@@@ATL@@@ATL@@SGJPAXABU_GUID@@PAPAX@Z 1001c900     MotorControl.obj
 0003:00006918       __ehfuncinfo$?CreateInstance@?$CComCreator@V?$CComObject@VCMotorControl@@@ATL@@@ATL@@SGJPAXABU_GUID@@PAPAX@Z 1001c918     MotorControl.obj
 0003:0000693c       __catchsym$?CreateInstance@?$CComCreator@V?$CComAggObject@VCMotorControl@@@ATL@@@ATL@@SGJPAXABU_GUID@@PAPAX@Z$5 1001c93c     MotorControl.obj
 0003:0000694c       __tryblocktable$?CreateInstance@?$CComCreator@V?$CComAggObject@VCMotorControl@@@ATL@@@ATL@@SGJPAXABU_GUID@@PAPAX@Z 1001c94c     MotorControl.obj
 0003:00006960       __unwindtable$?CreateInstance@?$CComCreator@V?$CComAggObject@VCMotorControl@@@ATL@@@ATL@@SGJPAXABU_GUID@@PAPAX@Z 1001c960     MotorControl.obj
 0003:00006980       __ehfuncinfo$?CreateInstance@?$CComCreator@V?$CComAggObject@VCMotorControl@@@ATL@@@ATL@@SGJPAXABU_GUID@@PAPAX@Z 1001c980     MotorControl.obj
 0003:000069a4       __unwindtable$??0?$CComObject@VCMotorControl@@@ATL@@QAE@PAX@Z 1001c9a4     MotorControl.obj
 0003:000069ac       __ehfuncinfo$??0?$CComObject@VCMotorControl@@@ATL@@QAE@PAX@Z 1001c9ac     MotorControl.obj
 0003:000069d0       __catchsym$?CreateInstance@?$CComCreator@V?$CComObject@VCSurfaceSource@@@ATL@@@ATL@@SGJPAXABU_GUID@@PAPAX@Z$3 1001c9d0     SurfaceSource.obj
 0003:000069e0       __tryblocktable$?CreateInstance@?$CComCreator@V?$CComObject@VCSurfaceSource@@@ATL@@@ATL@@SGJPAXABU_GUID@@PAPAX@Z 1001c9e0     SurfaceSource.obj
 0003:000069f4       __unwindtable$?CreateInstance@?$CComCreator@V?$CComObject@VCSurfaceSource@@@ATL@@@ATL@@SGJPAXABU_GUID@@PAPAX@Z 1001c9f4     SurfaceSource.obj
 0003:00006a0c       __ehfuncinfo$?CreateInstance@?$CComCreator@V?$CComObject@VCSurfaceSource@@@ATL@@@ATL@@SGJPAXABU_GUID@@PAPAX@Z 1001ca0c     SurfaceSource.obj
 0003:00006a30       __catchsym$?CreateInstance@?$CComCreator@V?$CComAggObject@VCSurfaceSource@@@ATL@@@ATL@@SGJPAXABU_GUID@@PAPAX@Z$3 1001ca30     SurfaceSource.obj
 0003:00006a40       __tryblocktable$?CreateInstance@?$CComCreator@V?$CComAggObject@VCSurfaceSource@@@ATL@@@ATL@@SGJPAXABU_GUID@@PAPAX@Z 1001ca40     SurfaceSource.obj
 0003:00006a54       __unwindtable$?CreateInstance@?$CComCreator@V?$CComAggObject@VCSurfaceSource@@@ATL@@@ATL@@SGJPAXABU_GUID@@PAPAX@Z 1001ca54     SurfaceSource.obj
 0003:00006a6c       __ehfuncinfo$?CreateInstance@?$CComCreator@V?$CComAggObject@VCSurfaceSource@@@ATL@@@ATL@@SGJPAXABU_GUID@@PAPAX@Z 1001ca6c     SurfaceSource.obj
 0003:00006a90       __unwindtable$??0?$CComAggObject@VCSurfaceSource@@@ATL@@QAE@PAX@Z 1001ca90     SurfaceSource.obj
 0003:00006a98       __ehfuncinfo$??0?$CComAggObject@VCSurfaceSource@@@ATL@@QAE@PAX@Z 1001ca98     SurfaceSource.obj
 0003:00006abc       __unwindtable$??0?$CComObject@VCSurfaceSource@@@ATL@@QAE@PAX@Z 1001cabc     SurfaceSource.obj
 0003:00006ac4       __ehfuncinfo$??0?$CComObject@VCSurfaceSource@@@ATL@@QAE@PAX@Z 1001cac4     SurfaceSource.obj
 0003:00006ae8       __catchsym$?CreateInstance@?$CComCreator@V?$CComObject@VCVacuumPump@@@ATL@@@ATL@@SGJPAXABU_GUID@@PAPAX@Z$3 1001cae8     VacuumPump.obj
 0003:00006af8       __tryblocktable$?CreateInstance@?$CComCreator@V?$CComObject@VCVacuumPump@@@ATL@@@ATL@@SGJPAXABU_GUID@@PAPAX@Z 1001caf8     VacuumPump.obj
 0003:00006b0c       __unwindtable$?CreateInstance@?$CComCreator@V?$CComObject@VCVacuumPump@@@ATL@@@ATL@@SGJPAXABU_GUID@@PAPAX@Z 1001cb0c     VacuumPump.obj
 0003:00006b24       __ehfuncinfo$?CreateInstance@?$CComCreator@V?$CComObject@VCVacuumPump@@@ATL@@@ATL@@SGJPAXABU_GUID@@PAPAX@Z 1001cb24     VacuumPump.obj
 0003:00006b48       __catchsym$?CreateInstance@?$CComCreator@V?$CComAggObject@VCVacuumPump@@@ATL@@@ATL@@SGJPAXABU_GUID@@PAPAX@Z$5 1001cb48     VacuumPump.obj
 0003:00006b58       __tryblocktable$?CreateInstance@?$CComCreator@V?$CComAggObject@VCVacuumPump@@@ATL@@@ATL@@SGJPAXABU_GUID@@PAPAX@Z 1001cb58     VacuumPump.obj
 0003:00006b6c       __unwindtable$?CreateInstance@?$CComCreator@V?$CComAggObject@VCVacuumPump@@@ATL@@@ATL@@SGJPAXABU_GUID@@PAPAX@Z 1001cb6c     VacuumPump.obj
 0003:00006b8c       __ehfuncinfo$?CreateInstance@?$CComCreator@V?$CComAggObject@VCVacuumPump@@@ATL@@@ATL@@SGJPAXABU_GUID@@PAPAX@Z 1001cb8c     VacuumPump.obj
 0003:00006bb0       __unwindtable$??0?$CComObject@VCVacuumPump@@@ATL@@QAE@PAX@Z 1001cbb0     VacuumPump.obj
 0003:00006bb8       __ehfuncinfo$??0?$CComObject@VCVacuumPump@@@ATL@@QAE@PAX@Z 1001cbb8     VacuumPump.obj
 0003:00006bdc       __ehfuncinfo$?AtlRegisterClassCategoriesHelper@ATL@@YGJABU_GUID@@PBU_ATL_CATMAP_ENTRY@1@H@Z 1001cbdc     XRFNet.obj
 0003:00006c00       __unwindtable$?AtlRegisterClassCategoriesHelper@ATL@@YGJABU_GUID@@PBU_ATL_CATMAP_ENTRY@1@H@Z 1001cc00     XRFNet.obj
 0003:00006c30       __unwindtable$?AtlRegisterTypeLib@ATL@@YGJPAUHINSTANCE__@@PB_W@Z 1001cc30     XRFNet.obj
 0003:00006c40       __ehfuncinfo$?AtlRegisterTypeLib@ATL@@YGJPAUHINSTANCE__@@PB_W@Z 1001cc40     XRFNet.obj
 0003:00006c64       __unwindtable$?AtlUnRegisterTypeLib@ATL@@YGJPAUHINSTANCE__@@PB_W@Z 1001cc64     XRFNet.obj
 0003:00006c74       __ehfuncinfo$?AtlUnRegisterTypeLib@ATL@@YGJPAUHINSTANCE__@@PB_W@Z 1001cc74     XRFNet.obj
 0003:00006c98       __unwindtable$?FinalConstruct@CXRFNetwork@@QAEJXZ 1001cc98     XRFNetwork.obj
 0003:00006ca0       __ehfuncinfo$?FinalConstruct@CXRFNetwork@@QAEJXZ 1001cca0     XRFNetwork.obj
 0003:00006cc4       __catchsym$?CreateInstance@?$CComCreator@V?$CComObject@VCXRFNetwork@@@ATL@@@ATL@@SGJPAXABU_GUID@@PAPAX@Z$4 1001ccc4     XRFNetwork.obj
 0003:00006cd4       __tryblocktable$?CreateInstance@?$CComCreator@V?$CComObject@VCXRFNetwork@@@ATL@@@ATL@@SGJPAXABU_GUID@@PAPAX@Z 1001ccd4     XRFNetwork.obj
 0003:00006ce8       __unwindtable$?CreateInstance@?$CComCreator@V?$CComObject@VCXRFNetwork@@@ATL@@@ATL@@SGJPAXABU_GUID@@PAPAX@Z 1001cce8     XRFNetwork.obj
 0003:00006d08       __ehfuncinfo$?CreateInstance@?$CComCreator@V?$CComObject@VCXRFNetwork@@@ATL@@@ATL@@SGJPAXABU_GUID@@PAPAX@Z 1001cd08     XRFNetwork.obj
 0003:00006d2c       __catchsym$?CreateInstance@?$CComCreator@V?$CComAggObject@VCXRFNetwork@@@ATL@@@ATL@@SGJPAXABU_GUID@@PAPAX@Z$3 1001cd2c     XRFNetwork.obj
 0003:00006d3c       __tryblocktable$?CreateInstance@?$CComCreator@V?$CComAggObject@VCXRFNetwork@@@ATL@@@ATL@@SGJPAXABU_GUID@@PAPAX@Z 1001cd3c     XRFNetwork.obj
 0003:00006d50       __unwindtable$?CreateInstance@?$CComCreator@V?$CComAggObject@VCXRFNetwork@@@ATL@@@ATL@@SGJPAXABU_GUID@@PAPAX@Z 1001cd50     XRFNetwork.obj
 0003:00006d68       __ehfuncinfo$?CreateInstance@?$CComCreator@V?$CComAggObject@VCXRFNetwork@@@ATL@@@ATL@@SGJPAXABU_GUID@@PAPAX@Z 1001cd68     XRFNetwork.obj
 0003:00006d8c       __unwindtable$??0?$CComAggObject@VCXRFNetwork@@@ATL@@QAE@PAX@Z 1001cd8c     XRFNetwork.obj
 0003:00006d94       __ehfuncinfo$??0?$CComAggObject@VCXRFNetwork@@@ATL@@QAE@PAX@Z 1001cd94     XRFNetwork.obj
 0003:00006db8       __catchsym$?CreateInstance@?$CComCreator@V?$CComObject@VCXRFRayTube@@@ATL@@@ATL@@SGJPAXABU_GUID@@PAPAX@Z$3 1001cdb8     XRFRayTube.obj
 0003:00006dc8       __tryblocktable$?CreateInstance@?$CComCreator@V?$CComObject@VCXRFRayTube@@@ATL@@@ATL@@SGJPAXABU_GUID@@PAPAX@Z 1001cdc8     XRFRayTube.obj
 0003:00006ddc       __unwindtable$?CreateInstance@?$CComCreator@V?$CComObject@VCXRFRayTube@@@ATL@@@ATL@@SGJPAXABU_GUID@@PAPAX@Z 1001cddc     XRFRayTube.obj
 0003:00006df4       __ehfuncinfo$?CreateInstance@?$CComCreator@V?$CComObject@VCXRFRayTube@@@ATL@@@ATL@@SGJPAXABU_GUID@@PAPAX@Z 1001cdf4     XRFRayTube.obj
 0003:00006e18       __catchsym$?CreateInstance@?$CComCreator@V?$CComAggObject@VCXRFRayTube@@@ATL@@@ATL@@SGJPAXABU_GUID@@PAPAX@Z$5 1001ce18     XRFRayTube.obj
 0003:00006e28       __tryblocktable$?CreateInstance@?$CComCreator@V?$CComAggObject@VCXRFRayTube@@@ATL@@@ATL@@SGJPAXABU_GUID@@PAPAX@Z 1001ce28     XRFRayTube.obj
 0003:00006e3c       __unwindtable$?CreateInstance@?$CComCreator@V?$CComAggObject@VCXRFRayTube@@@ATL@@@ATL@@SGJPAXABU_GUID@@PAPAX@Z 1001ce3c     XRFRayTube.obj
 0003:00006e5c       __ehfuncinfo$?CreateInstance@?$CComCreator@V?$CComAggObject@VCXRFRayTube@@@ATL@@@ATL@@SGJPAXABU_GUID@@PAPAX@Z 1001ce5c     XRFRayTube.obj
 0003:00006e80       __unwindtable$??0?$CComObject@VCXRFRayTube@@@ATL@@QAE@PAX@Z 1001ce80     XRFRayTube.obj
 0003:00006e88       __ehfuncinfo$??0?$CComObject@VCXRFRayTube@@@ATL@@QAE@PAX@Z 1001ce88     XRFRayTube.obj
 0003:00006eb0       __sehtable$??_L@YGXPAXIIP6EX0@Z1@Z 1001ceb0     MSVCRT:ehvecctr.obj
 0003:00006ed0       __sehtable$??_M@YGXPAXIIP6EX0@Z@Z 1001ced0     MSVCRT:ehvecdtr.obj
 0003:00006ef0       __sehtable$?__ArrayUnwind@@YGXPAXIIP6EX0@Z@Z 1001cef0     MSVCRT:ehvecdtr.obj
 0003:00006f0c       __catchsym$??2@YAPAXIABUnothrow_t@std@@@Z$2 1001cf0c     MSVCRT:new_scalar_nothrow.obj
 0003:00006f1c       __unwindtable$??2@YAPAXIABUnothrow_t@std@@@Z 1001cf1c     MSVCRT:new_scalar_nothrow.obj
 0003:00006f2c       __tryblocktable$??2@YAPAXIABUnothrow_t@std@@@Z 1001cf2c     MSVCRT:new_scalar_nothrow.obj
 0003:00006f40       __ehfuncinfo$??2@YAPAXIABUnothrow_t@std@@@Z 1001cf40     MSVCRT:new_scalar_nothrow.obj
 0003:00006f68       __sehtable$___scrt_is_nonwritable_in_current_image 1001cf68     MSVCRT:utility.obj
 0003:00006f88       __sehtable$?dllmain_crt_process_attach@@YAHQAUHINSTANCE__@@QAX@Z 1001cf88     MSVCRT:dll_dllmain.obj
 0003:00006fa8       __sehtable$?dllmain_crt_process_detach@@YAH_N@Z 1001cfa8     MSVCRT:dll_dllmain.obj
 0003:00006fc8       __sehtable$?dllmain_dispatch@@YAHQAUHINSTANCE__@@KQAX@Z 1001cfc8     MSVCRT:dll_dllmain.obj
 0003:000070b0       .edata                     1001d0b0     XRFNet.exp
 0003:000070d8       rgpv                       1001d0d8     XRFNet.exp
 0003:000070ec       rgszName                   1001d0ec     XRFNet.exp
 0003:00007100       rgwOrd                     1001d100     XRFNet.exp
 0003:0000710a       szName                     1001d10a     XRFNet.exp
 0003:00007115       $N00001                    1001d115     XRFNet.exp
 0003:00007125       $N00002                    1001d125     XRFNet.exp
 0003:00007137       $N00003                    1001d137     XRFNet.exp
 0003:00007142       $N00004                    1001d142     XRFNet.exp
 0003:00007154       $N00005                    1001d154     XRFNet.exp
 0003:0000774a       .idata$6                   1001d74a     kernel32:KERNEL32.dll
 0003:000077ba       .idata$6                   1001d7ba     user32:USER32.dll
 0003:0000784e       .idata$6                   1001d84e     advapi32:ADVAPI32.dll
 0003:000078b8       .idata$6                   1001d8b8     ole32:ole32.dll
 0003:000078c2       .idata$6                   1001d8c2     oleaut32:OLEAUT32.dll
 0003:0000792a       .idata$6                   1001d92a     msvcprt:MSVCP140.dll
 0003:00007938       .idata$6                   1001d938     Ws2_32:WS2_32.dll
 0003:00007b8a       .idata$6                   1001db8a     rpcrt4:RPCRT4.dll
 0003:00007ce8       .idata$6                   1001dce8     vcruntime:VCRUNTIME140.dll
 0003:00007e8c       .idata$6                   1001de8c     ucrt:api-ms-win-crt-runtime-l1-1-0.dll
 0003:00007eae       .idata$6                   1001deae     ucrt:api-ms-win-crt-heap-l1-1-0.dll
 0003:00007ece       .idata$6                   1001dece     ucrt:api-ms-win-crt-string-l1-1-0.dll
 0003:00007ef0       .idata$6                   1001def0     ucrt:api-ms-win-crt-stdio-l1-1-0.dll
 0003:00007f10       .idata$6                   1001df10     ucrt:api-ms-win-crt-math-l1-1-0.dll
 0004:00002288       _GS_ExceptionRecord        10021288     MSVCRT:gs_report.obj
 0004:000022d8       _GS_ContextRecord          100212d8     MSVCRT:gs_report.obj
 0004:000025a4       ?_Tss_mutex@@3U_RTL_CRITICAL_SECTION@@A 100215a4     MSVCRT:thread_safe_statics.obj
 0004:000025bc       ?_Tss_cv@@3U_RTL_CONDITION_VARIABLE@@A 100215bc     MSVCRT:thread_safe_statics.obj
 0004:000025c0       ?_Tss_event@@3PAXA         100215c0     MSVCRT:thread_safe_statics.obj
 0004:000025c4       ?encoded_sleep_condition_variable_cs@@3P6GHPAU_RTL_CONDITION_VARIABLE@@PAU_RTL_CRITICAL_SECTION@@K@ZA 100215c4     MSVCRT:thread_safe_statics.obj
 0004:000025c8       ?encoded_wake_all_condition_variable@@3P6GXPAU_RTL_CONDITION_VARIABLE@@@ZA 100215c8     MSVCRT:thread_safe_statics.obj
 0004:000025d8       ?module_local_atexit_table@@3U_onexit_table_t@@A 100215d8     MSVCRT:utility.obj
 0004:000025e4       ?module_local_at_quick_exit_table@@3U_onexit_table_t@@A 100215e4     MSVCRT:utility.obj
 0004:000025f0       ?is_initialized_as_dll@@3_NA 100215f0     MSVCRT:utility.obj
 0004:000025f4       ?__proc_attached@@3HA      100215f4     MSVCRT:dll_dllmain.obj
 0006:000003b0       $R000000                   100233b0     XRFNet.res
 0006:00000630       $R000280                   10023630     XRFNet.res
 0006:00000890       $R0004E0                   10023890     XRFNet.res
 0006:00000af0       $R000740                   10023af0     XRFNet.res
 0006:00000d48       $R000998                   10023d48     XRFNet.res
 0006:00000fb0       $R000C00                   10023fb0     XRFNet.res
 0006:00001220       $R000E70                   10024220     XRFNet.res
 0006:00001498       $R0010E8                   10024498     XRFNet.res
 0006:00001708       $R001358                   10024708     XRFNet.res
 0006:00001948       $R001598                   10024948     XRFNet.res
 0006:00001ba0       $R0017F0                   10024ba0     XRFNet.res
 0006:00001df0       $R001A40                   10024df0     XRFNet.res
 0006:00001e68       $R001AB8                   10024e68     XRFNet.res
 0006:00002198       $R001DE8                   10025198     XRFNet.res
 0006:00005ec0       $R005B10                   10028ec0     XRFNet.res
 0006:00005ef0       $R005B40                   10028ef0     XRFNet.res

 Exports

  ordinal    name

        1    _DllCanUnloadNow@0
               exported name: DllCanUnloadNow
        2    _DllGetClassObject@12
               exported name: DllGetClassObject
        3    _DllInstall@8
               exported name: DllInstall
        4    _DllRegisterServer@0
               exported name: DllRegisterServer
        5    _DllUnregisterServer@0
               exported name: DllUnregisterServer
